
var.elf:     file format elf64-littleriscv


Disassembly of section .text.init:

0000000080000000 <_start>:
    80000000:	00000093          	li	ra,0
    80000004:	00000113          	li	sp,0
    80000008:	00000193          	li	gp,0
    8000000c:	00000213          	li	tp,0
    80000010:	00000293          	li	t0,0
    80000014:	00000313          	li	t1,0
    80000018:	00000393          	li	t2,0
    8000001c:	00000413          	li	s0,0
    80000020:	00000493          	li	s1,0
    80000024:	00000513          	li	a0,0
    80000028:	00000593          	li	a1,0
    8000002c:	00000613          	li	a2,0
    80000030:	00000693          	li	a3,0
    80000034:	00000713          	li	a4,0
    80000038:	00000793          	li	a5,0
    8000003c:	00000813          	li	a6,0
    80000040:	00000893          	li	a7,0
    80000044:	00000913          	li	s2,0
    80000048:	00000993          	li	s3,0
    8000004c:	00000a13          	li	s4,0
    80000050:	00000a93          	li	s5,0
    80000054:	00000b13          	li	s6,0
    80000058:	00000b93          	li	s7,0
    8000005c:	00000c13          	li	s8,0
    80000060:	00000c93          	li	s9,0
    80000064:	00000d13          	li	s10,0
    80000068:	00000d93          	li	s11,0
    8000006c:	00000e13          	li	t3,0
    80000070:	00000e93          	li	t4,0
    80000074:	00000f13          	li	t5,0
    80000078:	00000f93          	li	t6,0
    8000007c:	0001e2b7          	lui	t0,0x1e
    80000080:	6002829b          	addiw	t0,t0,1536 # 1e600 <buflen.1+0x1e5c0>
    80000084:	3002a073          	csrs	mstatus,t0
    80000088:	00100293          	li	t0,1
    8000008c:	01f29293          	slli	t0,t0,0x1f
    80000090:	0002da63          	bgez	t0,800000a4 <_start+0xa4>
    80000094:	00100513          	li	a0,1
    80000098:	00001297          	auipc	t0,0x1
    8000009c:	f6a2a423          	sw	a0,-152(t0) # 80001000 <tohost>
    800000a0:	ff5ff06f          	j	80000094 <_start+0x94>
    800000a4:	00000297          	auipc	t0,0x0
    800000a8:	09028293          	addi	t0,t0,144 # 80000134 <_start+0x134>
    800000ac:	30529073          	csrw	mtvec,t0
    800000b0:	00301073          	fscsr	zero
    800000b4:	f0000053          	fmv.w.x	ft0,zero
    800000b8:	f00000d3          	fmv.w.x	ft1,zero
    800000bc:	f0000153          	fmv.w.x	ft2,zero
    800000c0:	f00001d3          	fmv.w.x	ft3,zero
    800000c4:	f0000253          	fmv.w.x	ft4,zero
    800000c8:	f00002d3          	fmv.w.x	ft5,zero
    800000cc:	f0000353          	fmv.w.x	ft6,zero
    800000d0:	f00003d3          	fmv.w.x	ft7,zero
    800000d4:	f0000453          	fmv.w.x	fs0,zero
    800000d8:	f00004d3          	fmv.w.x	fs1,zero
    800000dc:	f0000553          	fmv.w.x	fa0,zero
    800000e0:	f00005d3          	fmv.w.x	fa1,zero
    800000e4:	f0000653          	fmv.w.x	fa2,zero
    800000e8:	f00006d3          	fmv.w.x	fa3,zero
    800000ec:	f0000753          	fmv.w.x	fa4,zero
    800000f0:	f00007d3          	fmv.w.x	fa5,zero
    800000f4:	f0000853          	fmv.w.x	fa6,zero
    800000f8:	f00008d3          	fmv.w.x	fa7,zero
    800000fc:	f0000953          	fmv.w.x	fs2,zero
    80000100:	f00009d3          	fmv.w.x	fs3,zero
    80000104:	f0000a53          	fmv.w.x	fs4,zero
    80000108:	f0000ad3          	fmv.w.x	fs5,zero
    8000010c:	f0000b53          	fmv.w.x	fs6,zero
    80000110:	f0000bd3          	fmv.w.x	fs7,zero
    80000114:	f0000c53          	fmv.w.x	fs8,zero
    80000118:	f0000cd3          	fmv.w.x	fs9,zero
    8000011c:	f0000d53          	fmv.w.x	fs10,zero
    80000120:	f0000dd3          	fmv.w.x	fs11,zero
    80000124:	f0000e53          	fmv.w.x	ft8,zero
    80000128:	f0000ed3          	fmv.w.x	ft9,zero
    8000012c:	f0000f53          	fmv.w.x	ft10,zero
    80000130:	f0000fd3          	fmv.w.x	ft11,zero
    80000134:	00000297          	auipc	t0,0x0
    80000138:	04028293          	addi	t0,t0,64 # 80000174 <trap_entry>
    8000013c:	30529073          	csrw	mtvec,t0
    80000140:	00004197          	auipc	gp,0x4
    80000144:	f0818193          	addi	gp,gp,-248 # 80004048 <__global_pointer$>
    80000148:	bf718213          	addi	tp,gp,-1033 # 80003c3f <_end+0x3f>
    8000014c:	fc027213          	andi	tp,tp,-64
    80000150:	f1402573          	csrr	a0,mhartid
    80000154:	00100593          	li	a1,1
    80000158:	00b57063          	bgeu	a0,a1,80000158 <_start+0x158>
    8000015c:	00150113          	addi	sp,a0,1
    80000160:	01111113          	slli	sp,sp,0x11
    80000164:	00410133          	add	sp,sp,tp
    80000168:	01151613          	slli	a2,a0,0x11
    8000016c:	00c20233          	add	tp,tp,a2
    80000170:	4340306f          	j	800035a4 <_init>

0000000080000174 <trap_entry>:
    80000174:	ef010113          	addi	sp,sp,-272
    80000178:	00113423          	sd	ra,8(sp)
    8000017c:	00213823          	sd	sp,16(sp)
    80000180:	00313c23          	sd	gp,24(sp)
    80000184:	02413023          	sd	tp,32(sp)
    80000188:	02513423          	sd	t0,40(sp)
    8000018c:	02613823          	sd	t1,48(sp)
    80000190:	02713c23          	sd	t2,56(sp)
    80000194:	04813023          	sd	s0,64(sp)
    80000198:	04913423          	sd	s1,72(sp)
    8000019c:	04a13823          	sd	a0,80(sp)
    800001a0:	04b13c23          	sd	a1,88(sp)
    800001a4:	06c13023          	sd	a2,96(sp)
    800001a8:	06d13423          	sd	a3,104(sp)
    800001ac:	06e13823          	sd	a4,112(sp)
    800001b0:	06f13c23          	sd	a5,120(sp)
    800001b4:	09013023          	sd	a6,128(sp)
    800001b8:	09113423          	sd	a7,136(sp)
    800001bc:	09213823          	sd	s2,144(sp)
    800001c0:	09313c23          	sd	s3,152(sp)
    800001c4:	0b413023          	sd	s4,160(sp)
    800001c8:	0b513423          	sd	s5,168(sp)
    800001cc:	0b613823          	sd	s6,176(sp)
    800001d0:	0b713c23          	sd	s7,184(sp)
    800001d4:	0d813023          	sd	s8,192(sp)
    800001d8:	0d913423          	sd	s9,200(sp)
    800001dc:	0da13823          	sd	s10,208(sp)
    800001e0:	0db13c23          	sd	s11,216(sp)
    800001e4:	0fc13023          	sd	t3,224(sp)
    800001e8:	0fd13423          	sd	t4,232(sp)
    800001ec:	0fe13823          	sd	t5,240(sp)
    800001f0:	0ff13c23          	sd	t6,248(sp)
    800001f4:	34202573          	csrr	a0,mcause
    800001f8:	341025f3          	csrr	a1,mepc
    800001fc:	00010613          	mv	a2,sp
    80000200:	0a8030ef          	jal	800032a8 <handle_trap>
    80000204:	34151073          	csrw	mepc,a0
    80000208:	000022b7          	lui	t0,0x2
    8000020c:	8002829b          	addiw	t0,t0,-2048 # 1800 <buflen.1+0x17c0>
    80000210:	3002a073          	csrs	mstatus,t0
    80000214:	00813083          	ld	ra,8(sp)
    80000218:	01013103          	ld	sp,16(sp)
    8000021c:	01813183          	ld	gp,24(sp)
    80000220:	02013203          	ld	tp,32(sp)
    80000224:	02813283          	ld	t0,40(sp)
    80000228:	03013303          	ld	t1,48(sp)
    8000022c:	03813383          	ld	t2,56(sp)
    80000230:	04013403          	ld	s0,64(sp)
    80000234:	04813483          	ld	s1,72(sp)
    80000238:	05013503          	ld	a0,80(sp)
    8000023c:	05813583          	ld	a1,88(sp)
    80000240:	06013603          	ld	a2,96(sp)
    80000244:	06813683          	ld	a3,104(sp)
    80000248:	07013703          	ld	a4,112(sp)
    8000024c:	07813783          	ld	a5,120(sp)
    80000250:	08013803          	ld	a6,128(sp)
    80000254:	08813883          	ld	a7,136(sp)
    80000258:	09013903          	ld	s2,144(sp)
    8000025c:	09813983          	ld	s3,152(sp)
    80000260:	0a013a03          	ld	s4,160(sp)
    80000264:	0a813a83          	ld	s5,168(sp)
    80000268:	0b013b03          	ld	s6,176(sp)
    8000026c:	0b813b83          	ld	s7,184(sp)
    80000270:	0c013c03          	ld	s8,192(sp)
    80000274:	0c813c83          	ld	s9,200(sp)
    80000278:	0d013d03          	ld	s10,208(sp)
    8000027c:	0d813d83          	ld	s11,216(sp)
    80000280:	0e013e03          	ld	t3,224(sp)
    80000284:	0e813e83          	ld	t4,232(sp)
    80000288:	0f013f03          	ld	t5,240(sp)
    8000028c:	0f813f83          	ld	t6,248(sp)
    80000290:	11010113          	addi	sp,sp,272
    80000294:	30200073          	mret

Disassembly of section .text:

0000000080002000 <mac_buffer_set>:
    80002000:	500007b7          	lui	a5,0x50000
    80002004:	00100713          	li	a4,1
    80002008:	00a7b023          	sd	a0,0(a5) # 50000000 <buflen.1+0x4fffffc0>
    8000200c:	00e7b423          	sd	a4,8(a5)
    80002010:	50000737          	lui	a4,0x50000
    80002014:	00873783          	ld	a5,8(a4) # 50000008 <buflen.1+0x4fffffc8>
    80002018:	fe079ee3          	bnez	a5,80002014 <mac_buffer_set+0x14>
    8000201c:	00008067          	ret

0000000080002020 <mac_init>:
    80002020:	00100713          	li	a4,1
    80002024:	500007b7          	lui	a5,0x50000
    80002028:	00e7b823          	sd	a4,16(a5) # 50000010 <buflen.1+0x4fffffd0>
    8000202c:	50000737          	lui	a4,0x50000
    80002030:	01873783          	ld	a5,24(a4) # 50000018 <buflen.1+0x4fffffd8>
    80002034:	0017f793          	andi	a5,a5,1
    80002038:	fe079ce3          	bnez	a5,80002030 <mac_init+0x10>
    8000203c:	00008067          	ret

0000000080002040 <mac_update>:
    80002040:	500007b7          	lui	a5,0x50000
    80002044:	02a7b023          	sd	a0,32(a5) # 50000020 <buflen.1+0x4fffffe0>
    80002048:	00200713          	li	a4,2
    8000204c:	02b7b423          	sd	a1,40(a5)
    80002050:	00e7b823          	sd	a4,16(a5)
    80002054:	50000737          	lui	a4,0x50000
    80002058:	01873783          	ld	a5,24(a4) # 50000018 <buflen.1+0x4fffffd8>
    8000205c:	0017f793          	andi	a5,a5,1
    80002060:	fe079ce3          	bnez	a5,80002058 <mac_update+0x18>
    80002064:	00008067          	ret

0000000080002068 <mac_final>:
    80002068:	00400713          	li	a4,4
    8000206c:	500007b7          	lui	a5,0x50000
    80002070:	00e7b823          	sd	a4,16(a5) # 50000010 <buflen.1+0x4fffffd0>
    80002074:	50000737          	lui	a4,0x50000
    80002078:	01873783          	ld	a5,24(a4) # 50000018 <buflen.1+0x4fffffd8>
    8000207c:	0017f793          	andi	a5,a5,1
    80002080:	fe079ce3          	bnez	a5,80002078 <mac_final+0x10>
    80002084:	03073503          	ld	a0,48(a4)
    80002088:	00008067          	ret

000000008000208c <set_seed>:
    8000208c:	500017b7          	lui	a5,0x50001
    80002090:	00a60533          	add	a0,a2,a0
    80002094:	00a7b023          	sd	a0,0(a5) # 50001000 <buflen.1+0x50000fc0>
    80002098:	00c585b3          	add	a1,a1,a2
    8000209c:	00b7b423          	sd	a1,8(a5)
    800020a0:	01050713          	addi	a4,a0,16
    800020a4:	00e7b823          	sd	a4,16(a5)
    800020a8:	01058713          	addi	a4,a1,16
    800020ac:	00e7bc23          	sd	a4,24(a5)
    800020b0:	02050713          	addi	a4,a0,32
    800020b4:	02e7b023          	sd	a4,32(a5)
    800020b8:	02058713          	addi	a4,a1,32
    800020bc:	02e7b423          	sd	a4,40(a5)
    800020c0:	03050513          	addi	a0,a0,48
    800020c4:	02a7b823          	sd	a0,48(a5)
    800020c8:	03058593          	addi	a1,a1,48
    800020cc:	00100713          	li	a4,1
    800020d0:	02b7bc23          	sd	a1,56(a5)
    800020d4:	04e7b023          	sd	a4,64(a5)
    800020d8:	50001737          	lui	a4,0x50001
    800020dc:	04073783          	ld	a5,64(a4) # 50001040 <buflen.1+0x50001000>
    800020e0:	fe079ee3          	bnez	a5,800020dc <set_seed+0x50>
    800020e4:	00008067          	ret

00000000800020e8 <axim_write_back>:
    800020e8:	50002737          	lui	a4,0x50002
    800020ec:	02873783          	ld	a5,40(a4) # 50002028 <buflen.1+0x50001fe8>
    800020f0:	fe079ee3          	bnez	a5,800020ec <axim_write_back+0x4>
    800020f4:	00a73c23          	sd	a0,24(a4)
    800020f8:	00100793          	li	a5,1
    800020fc:	02f73023          	sd	a5,32(a4)
    80002100:	00008067          	ret

0000000080002104 <axim_copy>:
    80002104:	50002737          	lui	a4,0x50002
    80002108:	02873783          	ld	a5,40(a4) # 50002028 <buflen.1+0x50001fe8>
    8000210c:	fe079ee3          	bnez	a5,80002108 <axim_copy+0x4>
    80002110:	00a73c23          	sd	a0,24(a4)
    80002114:	00200793          	li	a5,2
    80002118:	02f73023          	sd	a5,32(a4)
    8000211c:	00008067          	ret

0000000080002120 <axim_encrypt>:
    80002120:	50002737          	lui	a4,0x50002
    80002124:	02873783          	ld	a5,40(a4) # 50002028 <buflen.1+0x50001fe8>
    80002128:	fe079ee3          	bnez	a5,80002124 <axim_encrypt+0x4>
    8000212c:	00400793          	li	a5,4
    80002130:	02f73023          	sd	a5,32(a4)
    80002134:	00008067          	ret

0000000080002138 <axim_decrypt>:
    80002138:	50002737          	lui	a4,0x50002
    8000213c:	02873783          	ld	a5,40(a4) # 50002028 <buflen.1+0x50001fe8>
    80002140:	fe079ee3          	bnez	a5,8000213c <axim_decrypt+0x4>
    80002144:	00800793          	li	a5,8
    80002148:	02f73023          	sd	a5,32(a4)
    8000214c:	00008067          	ret

0000000080002150 <axim_read_return>:
    80002150:	50002737          	lui	a4,0x50002
    80002154:	02873783          	ld	a5,40(a4) # 50002028 <buflen.1+0x50001fe8>
    80002158:	fe079ee3          	bnez	a5,80002154 <axim_read_return+0x4>
    8000215c:	01000793          	li	a5,16
    80002160:	02f73023          	sd	a5,32(a4)
    80002164:	00008067          	ret

0000000080002168 <axim_write_return>:
    80002168:	50002737          	lui	a4,0x50002
    8000216c:	02873783          	ld	a5,40(a4) # 50002028 <buflen.1+0x50001fe8>
    80002170:	fe079ee3          	bnez	a5,8000216c <axim_write_return+0x4>
    80002174:	02000793          	li	a5,32
    80002178:	02f73023          	sd	a5,32(a4)
    8000217c:	00008067          	ret

0000000080002180 <setupAddressContext>:
    80002180:	500027b7          	lui	a5,0x50002
    80002184:	0087b883          	ld	a7,8(a5) # 50002008 <buflen.1+0x50001fc8>
    80002188:	ff700793          	li	a5,-9
    8000218c:	01c79793          	slli	a5,a5,0x1c
    80002190:	00f887b3          	add	a5,a7,a5
    80002194:	00b7d593          	srli	a1,a5,0xb
    80002198:	02520737          	lui	a4,0x2520
    8000219c:	0097d793          	srli	a5,a5,0x9
    800021a0:	00e585b3          	add	a1,a1,a4
    800021a4:	02500737          	lui	a4,0x2500
    800021a8:	00e78733          	add	a4,a5,a4
    800021ac:	0068d693          	srli	a3,a7,0x6
    800021b0:	00671713          	slli	a4,a4,0x6
    800021b4:	01f6f613          	andi	a2,a3,31
    800021b8:	00e53823          	sd	a4,16(a0)
    800021bc:	04000713          	li	a4,64
    800021c0:	00001837          	lui	a6,0x1
    800021c4:	02e53423          	sd	a4,40(a0)
    800021c8:	00860613          	addi	a2,a2,8
    800021cc:	08000713          	li	a4,128
    800021d0:	0076f693          	andi	a3,a3,7
    800021d4:	e1880313          	addi	t1,a6,-488 # e18 <buflen.1+0xdd8>
    800021d8:	00659593          	slli	a1,a1,0x6
    800021dc:	00361613          	slli	a2,a2,0x3
    800021e0:	00369693          	slli	a3,a3,0x3
    800021e4:	e0880813          	addi	a6,a6,-504
    800021e8:	02e53823          	sd	a4,48(a0)
    800021ec:	0c000713          	li	a4,192
    800021f0:	01153023          	sd	a7,0(a0)
    800021f4:	00b53423          	sd	a1,8(a0)
    800021f8:	00c53c23          	sd	a2,24(a0)
    800021fc:	02d53023          	sd	a3,32(a0)
    80002200:	02e53c23          	sd	a4,56(a0)
    80002204:	04653023          	sd	t1,64(a0)
    80002208:	05053423          	sd	a6,72(a0)
    8000220c:	00008067          	ret

0000000080002210 <verifyTreePath>:
    80002210:	40002eb7          	lui	t4,0x40002
    80002214:	fc010113          	addi	sp,sp,-64
    80002218:	bffff2b7          	lui	t0,0xbffff
    8000221c:	400018b7          	lui	a7,0x40001
    80002220:	e30e8e93          	addi	t4,t4,-464 # 40001e30 <buflen.1+0x40001df0>
    80002224:	02813823          	sd	s0,48(sp)
    80002228:	02913423          	sd	s1,40(sp)
    8000222c:	03213023          	sd	s2,32(sp)
    80002230:	01313c23          	sd	s3,24(sp)
    80002234:	fc828493          	addi	s1,t0,-56 # ffffffffbfffefc8 <__global_pointer$+0xffffffff3fffaf80>
    80002238:	02113c23          	sd	ra,56(sp)
    8000223c:	01413823          	sd	s4,16(sp)
    80002240:	01513423          	sd	s5,8(sp)
    80002244:	01613023          	sd	s6,0(sp)
    80002248:	a0818e13          	addi	t3,gp,-1528 # 80003a50 <level_base_addr>
    8000224c:	1b888893          	addi	a7,a7,440 # 400011b8 <buflen.1+0x40001178>
    80002250:	00000593          	li	a1,0
    80002254:	02520437          	lui	s0,0x2520
    80002258:	01d50eb3          	add	t4,a0,t4
    8000225c:	40000837          	lui	a6,0x40000
    80002260:	04000913          	li	s2,64
    80002264:	00100313          	li	t1,1
    80002268:	500007b7          	lui	a5,0x50000
    8000226c:	1bf00393          	li	t2,447
    80002270:	00200f13          	li	t5,2
    80002274:	00828293          	addi	t0,t0,8
    80002278:	03f00993          	li	s3,63
    8000227c:	00400f93          	li	t6,4
    80002280:	00053703          	ld	a4,0(a0)
    80002284:	40ae8633          	sub	a2,t4,a0
    80002288:	00063683          	ld	a3,0(a2)
    8000228c:	000e3b03          	ld	s6,0(t3)
    80002290:	00575713          	srli	a4,a4,0x5
    80002294:	00870733          	add	a4,a4,s0
    80002298:	00671713          	slli	a4,a4,0x6
    8000229c:	0016fa93          	andi	s5,a3,1
    800022a0:	00988a33          	add	s4,a7,s1
    800022a4:	01670733          	add	a4,a4,s6
    800022a8:	000a8a63          	beqz	s5,800022bc <verifyTreePath+0xac>
    800022ac:	fc06fb13          	andi	s6,a3,-64
    800022b0:	03670e63          	beq	a4,s6,800022ec <verifyTreePath+0xdc>
    800022b4:	0026f693          	andi	a3,a3,2
    800022b8:	12069c63          	bnez	a3,800023f0 <verifyTreePath+0x1e0>
    800022bc:	02083683          	ld	a3,32(a6) # 40000020 <buflen.1+0x3fffffe0>
    800022c0:	fe069ee3          	bnez	a3,800022bc <verifyTreePath+0xac>
    800022c4:	00e83023          	sd	a4,0(a6)
    800022c8:	01483423          	sd	s4,8(a6)
    800022cc:	01283823          	sd	s2,16(a6)
    800022d0:	00083c23          	sd	zero,24(a6)
    800022d4:	02683023          	sd	t1,32(a6)
    800022d8:	02083683          	ld	a3,32(a6)
    800022dc:	fe069ee3          	bnez	a3,800022d8 <verifyTreePath+0xc8>
    800022e0:	fc077713          	andi	a4,a4,-64
    800022e4:	00176713          	ori	a4,a4,1
    800022e8:	00e63023          	sd	a4,0(a2)
    800022ec:	0067b823          	sd	t1,16(a5) # 50000010 <buflen.1+0x4fffffd0>
    800022f0:	0187b703          	ld	a4,24(a5)
    800022f4:	00177713          	andi	a4,a4,1
    800022f8:	fe071ce3          	bnez	a4,800022f0 <verifyTreePath+0xe0>
    800022fc:	0147b023          	sd	s4,0(a5)
    80002300:	0067b423          	sd	t1,8(a5)
    80002304:	0087b703          	ld	a4,8(a5)
    80002308:	fe071ee3          	bnez	a4,80002304 <verifyTreePath+0xf4>
    8000230c:	0207b023          	sd	zero,32(a5)
    80002310:	0277b423          	sd	t2,40(a5)
    80002314:	01e7b823          	sd	t5,16(a5)
    80002318:	0187b703          	ld	a4,24(a5)
    8000231c:	00177713          	andi	a4,a4,1
    80002320:	fe071ce3          	bnez	a4,80002318 <verifyTreePath+0x108>
    80002324:	0a058063          	beqz	a1,800023c4 <verifyTreePath+0x1b4>
    80002328:	00588733          	add	a4,a7,t0
    8000232c:	00e7b023          	sd	a4,0(a5)
    80002330:	0067b423          	sd	t1,8(a5)
    80002334:	0087b703          	ld	a4,8(a5)
    80002338:	fe071ee3          	bnez	a4,80002334 <verifyTreePath+0x124>
    8000233c:	ff853703          	ld	a4,-8(a0)
    80002340:	01f77713          	andi	a4,a4,31
    80002344:	00870713          	addi	a4,a4,8 # 2500008 <buflen.1+0x24fffc8>
    80002348:	00371713          	slli	a4,a4,0x3
    8000234c:	02e7b023          	sd	a4,32(a5)
    80002350:	00770713          	addi	a4,a4,7
    80002354:	02e7b423          	sd	a4,40(a5)
    80002358:	01e7b823          	sd	t5,16(a5)
    8000235c:	0187b703          	ld	a4,24(a5)
    80002360:	00177713          	andi	a4,a4,1
    80002364:	fe071ce3          	bnez	a4,8000235c <verifyTreePath+0x14c>
    80002368:	01f7b823          	sd	t6,16(a5)
    8000236c:	0187b703          	ld	a4,24(a5)
    80002370:	00177713          	andi	a4,a4,1
    80002374:	fe071ce3          	bnez	a4,8000236c <verifyTreePath+0x15c>
    80002378:	0307b603          	ld	a2,48(a5)
    8000237c:	0008b683          	ld	a3,0(a7)
    80002380:	0ac69463          	bne	a3,a2,80002428 <verifyTreePath+0x218>
    80002384:	00158593          	addi	a1,a1,1
    80002388:	00850513          	addi	a0,a0,8
    8000238c:	008e0e13          	addi	t3,t3,8
    80002390:	fc088893          	addi	a7,a7,-64
    80002394:	eff596e3          	bne	a1,t6,80002280 <verifyTreePath+0x70>
    80002398:	00100513          	li	a0,1
    8000239c:	03813083          	ld	ra,56(sp)
    800023a0:	03013403          	ld	s0,48(sp)
    800023a4:	02813483          	ld	s1,40(sp)
    800023a8:	02013903          	ld	s2,32(sp)
    800023ac:	01813983          	ld	s3,24(sp)
    800023b0:	01013a03          	ld	s4,16(sp)
    800023b4:	00813a83          	ld	s5,8(sp)
    800023b8:	00013b03          	ld	s6,0(sp)
    800023bc:	04010113          	addi	sp,sp,64
    800023c0:	00008067          	ret
    800023c4:	0007b023          	sd	zero,0(a5)
    800023c8:	0067b423          	sd	t1,8(a5)
    800023cc:	0087b703          	ld	a4,8(a5)
    800023d0:	fe071ee3          	bnez	a4,800023cc <verifyTreePath+0x1bc>
    800023d4:	0207b023          	sd	zero,32(a5)
    800023d8:	0337b423          	sd	s3,40(a5)
    800023dc:	01e7b823          	sd	t5,16(a5)
    800023e0:	0187b703          	ld	a4,24(a5)
    800023e4:	00177713          	andi	a4,a4,1
    800023e8:	fe071ce3          	bnez	a4,800023e0 <verifyTreePath+0x1d0>
    800023ec:	f7dff06f          	j	80002368 <verifyTreePath+0x158>
    800023f0:	40000ab7          	lui	s5,0x40000
    800023f4:	020ab683          	ld	a3,32(s5) # 40000020 <buflen.1+0x3fffffe0>
    800023f8:	fe069ee3          	bnez	a3,800023f4 <verifyTreePath+0x1e4>
    800023fc:	016ab023          	sd	s6,0(s5)
    80002400:	014ab423          	sd	s4,8(s5)
    80002404:	04000693          	li	a3,64
    80002408:	00dab823          	sd	a3,16(s5)
    8000240c:	00100693          	li	a3,1
    80002410:	00dabc23          	sd	a3,24(s5)
    80002414:	02dab023          	sd	a3,32(s5)
    80002418:	40000ab7          	lui	s5,0x40000
    8000241c:	020ab683          	ld	a3,32(s5) # 40000020 <buflen.1+0x3fffffe0>
    80002420:	fe069ee3          	bnez	a3,8000241c <verifyTreePath+0x20c>
    80002424:	e99ff06f          	j	800022bc <verifyTreePath+0xac>
    80002428:	00001517          	auipc	a0,0x1
    8000242c:	42850513          	addi	a0,a0,1064 # 80003850 <main+0x80>
    80002430:	789000ef          	jal	800033b8 <printf>
    80002434:	00000513          	li	a0,0
    80002438:	f65ff06f          	j	8000239c <verifyTreePath+0x18c>

000000008000243c <Authentication>:
    8000243c:	f6010113          	addi	sp,sp,-160
    80002440:	500027b7          	lui	a5,0x50002
    80002444:	08913423          	sd	s1,136(sp)
    80002448:	0087b483          	ld	s1,8(a5) # 50002008 <buflen.1+0x50001fc8>
    8000244c:	ff700793          	li	a5,-9
    80002450:	01c79793          	slli	a5,a5,0x1c
    80002454:	00f487b3          	add	a5,s1,a5
    80002458:	00b7d693          	srli	a3,a5,0xb
    8000245c:	0107d613          	srli	a2,a5,0x10
    80002460:	0157d713          	srli	a4,a5,0x15
    80002464:	0067d593          	srli	a1,a5,0x6
    80002468:	02d13023          	sd	a3,32(sp)
    8000246c:	00e13823          	sd	a4,16(sp)
    80002470:	02b13423          	sd	a1,40(sp)
    80002474:	40002737          	lui	a4,0x40002
    80002478:	00c13c23          	sd	a2,24(sp)
    8000247c:	e1873603          	ld	a2,-488(a4) # 40001e18 <buflen.1+0x40001dd8>
    80002480:	0064d713          	srli	a4,s1,0x6
    80002484:	08813823          	sd	s0,144(sp)
    80002488:	09213023          	sd	s2,128(sp)
    8000248c:	0097d413          	srli	s0,a5,0x9
    80002490:	01f77913          	andi	s2,a4,31
    80002494:	025207b7          	lui	a5,0x2520
    80002498:	00777713          	andi	a4,a4,7
    8000249c:	00f686b3          	add	a3,a3,a5
    800024a0:	00371713          	slli	a4,a4,0x3
    800024a4:	025007b7          	lui	a5,0x2500
    800024a8:	00f40433          	add	s0,s0,a5
    800024ac:	00890913          	addi	s2,s2,8
    800024b0:	08113c23          	sd	ra,152(sp)
    800024b4:	07313c23          	sd	s3,120(sp)
    800024b8:	07413823          	sd	s4,112(sp)
    800024bc:	07513423          	sd	s5,104(sp)
    800024c0:	07613023          	sd	s6,96(sp)
    800024c4:	05713c23          	sd	s7,88(sp)
    800024c8:	05813823          	sd	s8,80(sp)
    800024cc:	05913423          	sd	s9,72(sp)
    800024d0:	05a13023          	sd	s10,64(sp)
    800024d4:	03b13c23          	sd	s11,56(sp)
    800024d8:	00167793          	andi	a5,a2,1
    800024dc:	00e13023          	sd	a4,0(sp)
    800024e0:	00669693          	slli	a3,a3,0x6
    800024e4:	00641413          	slli	s0,s0,0x6
    800024e8:	00391913          	slli	s2,s2,0x3
    800024ec:	00078a63          	beqz	a5,80002500 <Authentication+0xc4>
    800024f0:	fc067593          	andi	a1,a2,-64
    800024f4:	04b68863          	beq	a3,a1,80002544 <Authentication+0x108>
    800024f8:	00267613          	andi	a2,a2,2
    800024fc:	50061263          	bnez	a2,80002a00 <Authentication+0x5c4>
    80002500:	40000737          	lui	a4,0x40000
    80002504:	02073783          	ld	a5,32(a4) # 40000020 <buflen.1+0x3fffffe0>
    80002508:	fe079ee3          	bnez	a5,80002504 <Authentication+0xc8>
    8000250c:	00d73023          	sd	a3,0(a4)
    80002510:	0c000793          	li	a5,192
    80002514:	00f73423          	sd	a5,8(a4)
    80002518:	04000793          	li	a5,64
    8000251c:	00f73823          	sd	a5,16(a4)
    80002520:	00073c23          	sd	zero,24(a4)
    80002524:	00100793          	li	a5,1
    80002528:	02f73023          	sd	a5,32(a4)
    8000252c:	40000737          	lui	a4,0x40000
    80002530:	02073783          	ld	a5,32(a4) # 40000020 <buflen.1+0x3fffffe0>
    80002534:	fe079ee3          	bnez	a5,80002530 <Authentication+0xf4>
    80002538:	0016e693          	ori	a3,a3,1
    8000253c:	400027b7          	lui	a5,0x40002
    80002540:	e0d7bc23          	sd	a3,-488(a5) # 40001e18 <buflen.1+0x40001dd8>
    80002544:	400017b7          	lui	a5,0x40001
    80002548:	00695a93          	srli	s5,s2,0x6
    8000254c:	0c078713          	addi	a4,a5,192 # 400010c0 <buflen.1+0x40001080>
    80002550:	003a9a93          	slli	s5,s5,0x3
    80002554:	00ea8ab3          	add	s5,s5,a4
    80002558:	0c07b703          	ld	a4,192(a5)
    8000255c:	000ab783          	ld	a5,0(s5)
    80002560:	03897b13          	andi	s6,s2,56
    80002564:	01010993          	addi	s3,sp,16
    80002568:	0167d7b3          	srl	a5,a5,s6
    8000256c:	0ff7f793          	zext.b	a5,a5
    80002570:	3e079c63          	bnez	a5,80002968 <Authentication+0x52c>
    80002574:	3e071a63          	bnez	a4,80002968 <Authentication+0x52c>
    80002578:	40001837          	lui	a6,0x40001
    8000257c:	00083783          	ld	a5,0(a6) # 40001000 <buflen.1+0x40000fc0>
    80002580:	40002a37          	lui	s4,0x40002
    80002584:	bffffbb7          	lui	s7,0xbffff
    80002588:	00178793          	addi	a5,a5,1
    8000258c:	00f83023          	sd	a5,0(a6)
    80002590:	e30a0a13          	addi	s4,s4,-464 # 40001e30 <buflen.1+0x40001df0>
    80002594:	00098513          	mv	a0,s3
    80002598:	fc8b8d13          	addi	s10,s7,-56 # ffffffffbfffefc8 <__global_pointer$+0xffffffff3fffaf80>
    8000259c:	01498a33          	add	s4,s3,s4
    800025a0:	a0818693          	addi	a3,gp,-1528 # 80003a50 <level_base_addr>
    800025a4:	1b880813          	addi	a6,a6,440
    800025a8:	00000e13          	li	t3,0
    800025ac:	02520cb7          	lui	s9,0x2520
    800025b0:	40000737          	lui	a4,0x40000
    800025b4:	04000d93          	li	s11,64
    800025b8:	00100e93          	li	t4,1
    800025bc:	0ff00093          	li	ra,255
    800025c0:	500007b7          	lui	a5,0x50000
    800025c4:	1bf00c13          	li	s8,447
    800025c8:	00200993          	li	s3,2
    800025cc:	008b8b93          	addi	s7,s7,8
    800025d0:	00400393          	li	t2,4
    800025d4:	01613423          	sd	s6,8(sp)
    800025d8:	00053603          	ld	a2,0(a0)
    800025dc:	40aa0f33          	sub	t5,s4,a0
    800025e0:	0006b303          	ld	t1,0(a3)
    800025e4:	000f3883          	ld	a7,0(t5)
    800025e8:	00565593          	srli	a1,a2,0x5
    800025ec:	019585b3          	add	a1,a1,s9
    800025f0:	00659593          	slli	a1,a1,0x6
    800025f4:	006585b3          	add	a1,a1,t1
    800025f8:	0018ff93          	andi	t6,a7,1
    800025fc:	01a802b3          	add	t0,a6,s10
    80002600:	fc05f313          	andi	t1,a1,-64
    80002604:	000f8a63          	beqz	t6,80002618 <Authentication+0x1dc>
    80002608:	fc08fb13          	andi	s6,a7,-64
    8000260c:	03658c63          	beq	a1,s6,80002644 <Authentication+0x208>
    80002610:	0028f893          	andi	a7,a7,2
    80002614:	3a089a63          	bnez	a7,800029c8 <Authentication+0x58c>
    80002618:	02073883          	ld	a7,32(a4) # 40000020 <buflen.1+0x3fffffe0>
    8000261c:	fe089ee3          	bnez	a7,80002618 <Authentication+0x1dc>
    80002620:	00b73023          	sd	a1,0(a4)
    80002624:	00573423          	sd	t0,8(a4)
    80002628:	01b73823          	sd	s11,16(a4)
    8000262c:	00073c23          	sd	zero,24(a4)
    80002630:	03d73023          	sd	t4,32(a4)
    80002634:	02073583          	ld	a1,32(a4)
    80002638:	fe059ee3          	bnez	a1,80002634 <Authentication+0x1f8>
    8000263c:	00136593          	ori	a1,t1,1
    80002640:	00bf3023          	sd	a1,0(t5)
    80002644:	01867593          	andi	a1,a2,24
    80002648:	fd080893          	addi	a7,a6,-48
    8000264c:	00b888b3          	add	a7,a7,a1
    80002650:	fc883b03          	ld	s6,-56(a6)
    80002654:	0008bf83          	ld	t6,0(a7)
    80002658:	00767613          	andi	a2,a2,7
    8000265c:	0036159b          	slliw	a1,a2,0x3
    80002660:	00bfd5b3          	srl	a1,t6,a1
    80002664:	0ff5f593          	zext.b	a1,a1
    80002668:	00361613          	slli	a2,a2,0x3
    8000266c:	34158663          	beq	a1,ra,800029b8 <Authentication+0x57c>
    80002670:	0015859b          	addiw	a1,a1,1
    80002674:	0ff5f593          	zext.b	a1,a1
    80002678:	00c595b3          	sll	a1,a1,a2
    8000267c:	00c09633          	sll	a2,ra,a2
    80002680:	fff64613          	not	a2,a2
    80002684:	01f67633          	and	a2,a2,t6
    80002688:	00b66633          	or	a2,a2,a1
    8000268c:	00c8b023          	sd	a2,0(a7)
    80002690:	00336313          	ori	t1,t1,3
    80002694:	006f3023          	sd	t1,0(t5)
    80002698:	01d7b823          	sd	t4,16(a5) # 50000010 <buflen.1+0x4fffffd0>
    8000269c:	0187b603          	ld	a2,24(a5)
    800026a0:	00167613          	andi	a2,a2,1
    800026a4:	fe061ce3          	bnez	a2,8000269c <Authentication+0x260>
    800026a8:	0057b023          	sd	t0,0(a5)
    800026ac:	01d7b423          	sd	t4,8(a5)
    800026b0:	0087b603          	ld	a2,8(a5)
    800026b4:	fe061ee3          	bnez	a2,800026b0 <Authentication+0x274>
    800026b8:	0207b023          	sd	zero,32(a5)
    800026bc:	0387b423          	sd	s8,40(a5)
    800026c0:	0137b823          	sd	s3,16(a5)
    800026c4:	0187b603          	ld	a2,24(a5)
    800026c8:	00167613          	andi	a2,a2,1
    800026cc:	fe061ce3          	bnez	a2,800026c4 <Authentication+0x288>
    800026d0:	2a0e0c63          	beqz	t3,80002988 <Authentication+0x54c>
    800026d4:	ff853583          	ld	a1,-8(a0)
    800026d8:	01780633          	add	a2,a6,s7
    800026dc:	00c7b023          	sd	a2,0(a5)
    800026e0:	01f5f593          	andi	a1,a1,31
    800026e4:	00359593          	slli	a1,a1,0x3
    800026e8:	01d7b423          	sd	t4,8(a5)
    800026ec:	0087b603          	ld	a2,8(a5)
    800026f0:	fe061ee3          	bnez	a2,800026ec <Authentication+0x2b0>
    800026f4:	04058613          	addi	a2,a1,64
    800026f8:	02c7b023          	sd	a2,32(a5)
    800026fc:	04758593          	addi	a1,a1,71
    80002700:	02b7b423          	sd	a1,40(a5)
    80002704:	0137b823          	sd	s3,16(a5)
    80002708:	0187b603          	ld	a2,24(a5)
    8000270c:	00167613          	andi	a2,a2,1
    80002710:	fe061ce3          	bnez	a2,80002708 <Authentication+0x2cc>
    80002714:	0077b823          	sd	t2,16(a5)
    80002718:	0187b603          	ld	a2,24(a5)
    8000271c:	00167613          	andi	a2,a2,1
    80002720:	fe061ce3          	bnez	a2,80002718 <Authentication+0x2dc>
    80002724:	0307b603          	ld	a2,48(a5)
    80002728:	001e0e13          	addi	t3,t3,1
    8000272c:	00850513          	addi	a0,a0,8
    80002730:	00c83023          	sd	a2,0(a6)
    80002734:	00868693          	addi	a3,a3,8
    80002738:	fc080813          	addi	a6,a6,-64
    8000273c:	e87e1ee3          	bne	t3,t2,800025d8 <Authentication+0x19c>
    80002740:	400017b7          	lui	a5,0x40001
    80002744:	0c07b983          	ld	s3,192(a5) # 400010c0 <buflen.1+0x40001080>
    80002748:	00813b03          	ld	s6,8(sp)
    8000274c:	000ab603          	ld	a2,0(s5)
    80002750:	00048693          	mv	a3,s1
    80002754:	00098593          	mv	a1,s3
    80002758:	01665633          	srl	a2,a2,s6
    8000275c:	0ff67a13          	zext.b	s4,a2
    80002760:	000a0613          	mv	a2,s4
    80002764:	00001517          	auipc	a0,0x1
    80002768:	17450513          	addi	a0,a0,372 # 800038d8 <main+0x108>
    8000276c:	44d000ef          	jal	800033b8 <printf>
    80002770:	00048613          	mv	a2,s1
    80002774:	000a0593          	mv	a1,s4
    80002778:	00098513          	mv	a0,s3
    8000277c:	911ff0ef          	jal	8000208c <set_seed>
    80002780:	50002737          	lui	a4,0x50002
    80002784:	02873783          	ld	a5,40(a4) # 50002028 <buflen.1+0x50001fe8>
    80002788:	fe079ee3          	bnez	a5,80002784 <Authentication+0x348>
    8000278c:	00400793          	li	a5,4
    80002790:	02f73023          	sd	a5,32(a4)
    80002794:	50002737          	lui	a4,0x50002
    80002798:	02873783          	ld	a5,40(a4) # 50002028 <buflen.1+0x50001fe8>
    8000279c:	fe079ee3          	bnez	a5,80002798 <Authentication+0x35c>
    800027a0:	04000793          	li	a5,64
    800027a4:	00f73c23          	sd	a5,24(a4)
    800027a8:	00100793          	li	a5,1
    800027ac:	02f73023          	sd	a5,32(a4)
    800027b0:	50000737          	lui	a4,0x50000
    800027b4:	00f73823          	sd	a5,16(a4) # 50000010 <buflen.1+0x4fffffd0>
    800027b8:	01873783          	ld	a5,24(a4)
    800027bc:	0017f793          	andi	a5,a5,1
    800027c0:	fe079ce3          	bnez	a5,800027b8 <Authentication+0x37c>
    800027c4:	04000793          	li	a5,64
    800027c8:	00f73023          	sd	a5,0(a4)
    800027cc:	00100793          	li	a5,1
    800027d0:	00f73423          	sd	a5,8(a4)
    800027d4:	50000737          	lui	a4,0x50000
    800027d8:	00873783          	ld	a5,8(a4) # 50000008 <buflen.1+0x4fffffc8>
    800027dc:	fe079ee3          	bnez	a5,800027d8 <Authentication+0x39c>
    800027e0:	02073023          	sd	zero,32(a4)
    800027e4:	1ff00793          	li	a5,511
    800027e8:	02f73423          	sd	a5,40(a4)
    800027ec:	00200793          	li	a5,2
    800027f0:	00f73823          	sd	a5,16(a4)
    800027f4:	50000737          	lui	a4,0x50000
    800027f8:	01873783          	ld	a5,24(a4) # 50000018 <buflen.1+0x4fffffd8>
    800027fc:	0017f793          	andi	a5,a5,1
    80002800:	fe079ce3          	bnez	a5,800027f8 <Authentication+0x3bc>
    80002804:	0c000793          	li	a5,192
    80002808:	00f73023          	sd	a5,0(a4)
    8000280c:	00100793          	li	a5,1
    80002810:	00f73423          	sd	a5,8(a4)
    80002814:	50000737          	lui	a4,0x50000
    80002818:	00873783          	ld	a5,8(a4) # 50000008 <buflen.1+0x4fffffc8>
    8000281c:	fe079ee3          	bnez	a5,80002818 <Authentication+0x3dc>
    80002820:	03273023          	sd	s2,32(a4)
    80002824:	00790913          	addi	s2,s2,7
    80002828:	03273423          	sd	s2,40(a4)
    8000282c:	00200793          	li	a5,2
    80002830:	00f73823          	sd	a5,16(a4)
    80002834:	50000737          	lui	a4,0x50000
    80002838:	01873783          	ld	a5,24(a4) # 50000018 <buflen.1+0x4fffffd8>
    8000283c:	0017f793          	andi	a5,a5,1
    80002840:	fe079ce3          	bnez	a5,80002838 <Authentication+0x3fc>
    80002844:	00400793          	li	a5,4
    80002848:	00f73823          	sd	a5,16(a4)
    8000284c:	50000737          	lui	a4,0x50000
    80002850:	01873783          	ld	a5,24(a4) # 50000018 <buflen.1+0x4fffffd8>
    80002854:	0017f793          	andi	a5,a5,1
    80002858:	fe079ce3          	bnez	a5,80002850 <Authentication+0x414>
    8000285c:	400027b7          	lui	a5,0x40002
    80002860:	03073683          	ld	a3,48(a4)
    80002864:	e087b783          	ld	a5,-504(a5) # 40001e08 <buflen.1+0x40001dc8>
    80002868:	0017f713          	andi	a4,a5,1
    8000286c:	00070a63          	beqz	a4,80002880 <Authentication+0x444>
    80002870:	fc07f613          	andi	a2,a5,-64
    80002874:	04c40863          	beq	s0,a2,800028c4 <Authentication+0x488>
    80002878:	0027f793          	andi	a5,a5,2
    8000287c:	1c079063          	bnez	a5,80002a3c <Authentication+0x600>
    80002880:	40000737          	lui	a4,0x40000
    80002884:	02073783          	ld	a5,32(a4) # 40000020 <buflen.1+0x3fffffe0>
    80002888:	fe079ee3          	bnez	a5,80002884 <Authentication+0x448>
    8000288c:	00873023          	sd	s0,0(a4)
    80002890:	08000793          	li	a5,128
    80002894:	00f73423          	sd	a5,8(a4)
    80002898:	04000793          	li	a5,64
    8000289c:	00f73823          	sd	a5,16(a4)
    800028a0:	00073c23          	sd	zero,24(a4)
    800028a4:	00100793          	li	a5,1
    800028a8:	02f73023          	sd	a5,32(a4)
    800028ac:	40000737          	lui	a4,0x40000
    800028b0:	02073783          	ld	a5,32(a4) # 40000020 <buflen.1+0x3fffffe0>
    800028b4:	fe079ee3          	bnez	a5,800028b0 <Authentication+0x474>
    800028b8:	00146793          	ori	a5,s0,1
    800028bc:	40002737          	lui	a4,0x40002
    800028c0:	e0f73423          	sd	a5,-504(a4) # 40001e08 <buflen.1+0x40001dc8>
    800028c4:	00013703          	ld	a4,0(sp)
    800028c8:	400017b7          	lui	a5,0x40001
    800028cc:	08078793          	addi	a5,a5,128 # 40001080 <buflen.1+0x40001040>
    800028d0:	00f707b3          	add	a5,a4,a5
    800028d4:	00d7b023          	sd	a3,0(a5)
    800028d8:	00346413          	ori	s0,s0,3
    800028dc:	400027b7          	lui	a5,0x40002
    800028e0:	e087b423          	sd	s0,-504(a5) # 40001e08 <buflen.1+0x40001dc8>
    800028e4:	40000737          	lui	a4,0x40000
    800028e8:	02073783          	ld	a5,32(a4) # 40000020 <buflen.1+0x3fffffe0>
    800028ec:	fe079ee3          	bnez	a5,800028e8 <Authentication+0x4ac>
    800028f0:	00973023          	sd	s1,0(a4)
    800028f4:	04000793          	li	a5,64
    800028f8:	00f73423          	sd	a5,8(a4)
    800028fc:	00f73823          	sd	a5,16(a4)
    80002900:	00100793          	li	a5,1
    80002904:	00f73c23          	sd	a5,24(a4)
    80002908:	02f73023          	sd	a5,32(a4)
    8000290c:	40000737          	lui	a4,0x40000
    80002910:	02073783          	ld	a5,32(a4) # 40000020 <buflen.1+0x3fffffe0>
    80002914:	fe079ee3          	bnez	a5,80002910 <Authentication+0x4d4>
    80002918:	50002737          	lui	a4,0x50002
    8000291c:	02873783          	ld	a5,40(a4) # 50002028 <buflen.1+0x50001fe8>
    80002920:	fe079ee3          	bnez	a5,8000291c <Authentication+0x4e0>
    80002924:	09813083          	ld	ra,152(sp)
    80002928:	09013403          	ld	s0,144(sp)
    8000292c:	02000793          	li	a5,32
    80002930:	02f73023          	sd	a5,32(a4)
    80002934:	08813483          	ld	s1,136(sp)
    80002938:	08013903          	ld	s2,128(sp)
    8000293c:	07813983          	ld	s3,120(sp)
    80002940:	07013a03          	ld	s4,112(sp)
    80002944:	06813a83          	ld	s5,104(sp)
    80002948:	06013b03          	ld	s6,96(sp)
    8000294c:	05813b83          	ld	s7,88(sp)
    80002950:	05013c03          	ld	s8,80(sp)
    80002954:	04813c83          	ld	s9,72(sp)
    80002958:	04013d03          	ld	s10,64(sp)
    8000295c:	03813d83          	ld	s11,56(sp)
    80002960:	0a010113          	addi	sp,sp,160
    80002964:	00008067          	ret
    80002968:	00098513          	mv	a0,s3
    8000296c:	8a5ff0ef          	jal	80002210 <verifyTreePath>
    80002970:	c00514e3          	bnez	a0,80002578 <Authentication+0x13c>
    80002974:	00001517          	auipc	a0,0x1
    80002978:	f1c50513          	addi	a0,a0,-228 # 80003890 <main+0xc0>
    8000297c:	23d000ef          	jal	800033b8 <printf>
    80002980:	00100513          	li	a0,1
    80002984:	139000ef          	jal	800032bc <exit>
    80002988:	0007b023          	sd	zero,0(a5)
    8000298c:	01d7b423          	sd	t4,8(a5)
    80002990:	0087b603          	ld	a2,8(a5)
    80002994:	fe061ee3          	bnez	a2,80002990 <Authentication+0x554>
    80002998:	0207b023          	sd	zero,32(a5)
    8000299c:	03f00613          	li	a2,63
    800029a0:	02c7b423          	sd	a2,40(a5)
    800029a4:	0137b823          	sd	s3,16(a5)
    800029a8:	0187b603          	ld	a2,24(a5)
    800029ac:	00167613          	andi	a2,a2,1
    800029b0:	fe061ce3          	bnez	a2,800029a8 <Authentication+0x56c>
    800029b4:	d61ff06f          	j	80002714 <Authentication+0x2d8>
    800029b8:	001b0b13          	addi	s6,s6,1
    800029bc:	fd683423          	sd	s6,-56(a6)
    800029c0:	00000593          	li	a1,0
    800029c4:	cb9ff06f          	j	8000267c <Authentication+0x240>
    800029c8:	40000fb7          	lui	t6,0x40000
    800029cc:	020fb883          	ld	a7,32(t6) # 40000020 <buflen.1+0x3fffffe0>
    800029d0:	fe089ee3          	bnez	a7,800029cc <Authentication+0x590>
    800029d4:	016fb023          	sd	s6,0(t6)
    800029d8:	005fb423          	sd	t0,8(t6)
    800029dc:	04000893          	li	a7,64
    800029e0:	011fb823          	sd	a7,16(t6)
    800029e4:	00100893          	li	a7,1
    800029e8:	011fbc23          	sd	a7,24(t6)
    800029ec:	031fb023          	sd	a7,32(t6)
    800029f0:	40000fb7          	lui	t6,0x40000
    800029f4:	020fb883          	ld	a7,32(t6) # 40000020 <buflen.1+0x3fffffe0>
    800029f8:	fe089ee3          	bnez	a7,800029f4 <Authentication+0x5b8>
    800029fc:	c1dff06f          	j	80002618 <Authentication+0x1dc>
    80002a00:	40000737          	lui	a4,0x40000
    80002a04:	02073783          	ld	a5,32(a4) # 40000020 <buflen.1+0x3fffffe0>
    80002a08:	fe079ee3          	bnez	a5,80002a04 <Authentication+0x5c8>
    80002a0c:	00b73023          	sd	a1,0(a4)
    80002a10:	0c000793          	li	a5,192
    80002a14:	00f73423          	sd	a5,8(a4)
    80002a18:	04000793          	li	a5,64
    80002a1c:	00f73823          	sd	a5,16(a4)
    80002a20:	00100793          	li	a5,1
    80002a24:	00f73c23          	sd	a5,24(a4)
    80002a28:	02f73023          	sd	a5,32(a4)
    80002a2c:	40000737          	lui	a4,0x40000
    80002a30:	02073783          	ld	a5,32(a4) # 40000020 <buflen.1+0x3fffffe0>
    80002a34:	fe079ee3          	bnez	a5,80002a30 <Authentication+0x5f4>
    80002a38:	ac9ff06f          	j	80002500 <Authentication+0xc4>
    80002a3c:	40000737          	lui	a4,0x40000
    80002a40:	02073783          	ld	a5,32(a4) # 40000020 <buflen.1+0x3fffffe0>
    80002a44:	fe079ee3          	bnez	a5,80002a40 <Authentication+0x604>
    80002a48:	00c73023          	sd	a2,0(a4)
    80002a4c:	08000793          	li	a5,128
    80002a50:	00f73423          	sd	a5,8(a4)
    80002a54:	04000793          	li	a5,64
    80002a58:	00f73823          	sd	a5,16(a4)
    80002a5c:	00100793          	li	a5,1
    80002a60:	00f73c23          	sd	a5,24(a4)
    80002a64:	02f73023          	sd	a5,32(a4)
    80002a68:	40000737          	lui	a4,0x40000
    80002a6c:	02073783          	ld	a5,32(a4) # 40000020 <buflen.1+0x3fffffe0>
    80002a70:	fe079ee3          	bnez	a5,80002a6c <Authentication+0x630>
    80002a74:	e0dff06f          	j	80002880 <Authentication+0x444>

0000000080002a78 <Verification>:
    80002a78:	fa010113          	addi	sp,sp,-96
    80002a7c:	500027b7          	lui	a5,0x50002
    80002a80:	03313c23          	sd	s3,56(sp)
    80002a84:	0087b983          	ld	s3,8(a5) # 50002008 <buflen.1+0x50001fc8>
    80002a88:	ff700793          	li	a5,-9
    80002a8c:	01c79793          	slli	a5,a5,0x1c
    80002a90:	00f987b3          	add	a5,s3,a5
    80002a94:	04913423          	sd	s1,72(sp)
    80002a98:	02500737          	lui	a4,0x2500
    80002a9c:	0097d493          	srli	s1,a5,0x9
    80002aa0:	0067d613          	srli	a2,a5,0x6
    80002aa4:	00b7d693          	srli	a3,a5,0xb
    80002aa8:	00e484b3          	add	s1,s1,a4
    80002aac:	00010513          	mv	a0,sp
    80002ab0:	0107d713          	srli	a4,a5,0x10
    80002ab4:	0157d793          	srli	a5,a5,0x15
    80002ab8:	04113c23          	sd	ra,88(sp)
    80002abc:	04813823          	sd	s0,80(sp)
    80002ac0:	05213023          	sd	s2,64(sp)
    80002ac4:	03413823          	sd	s4,48(sp)
    80002ac8:	03513423          	sd	s5,40(sp)
    80002acc:	00c13c23          	sd	a2,24(sp)
    80002ad0:	00d13823          	sd	a3,16(sp)
    80002ad4:	00e13423          	sd	a4,8(sp)
    80002ad8:	00f13023          	sd	a5,0(sp)
    80002adc:	f34ff0ef          	jal	80002210 <verifyTreePath>
    80002ae0:	28050c63          	beqz	a0,80002d78 <Verification+0x300>
    80002ae4:	0069d413          	srli	s0,s3,0x6
    80002ae8:	01f47913          	andi	s2,s0,31
    80002aec:	00890913          	addi	s2,s2,8
    80002af0:	00391913          	slli	s2,s2,0x3
    80002af4:	40001737          	lui	a4,0x40001
    80002af8:	00695793          	srli	a5,s2,0x6
    80002afc:	0c070693          	addi	a3,a4,192 # 400010c0 <buflen.1+0x40001080>
    80002b00:	00379793          	slli	a5,a5,0x3
    80002b04:	00d787b3          	add	a5,a5,a3
    80002b08:	0c073a83          	ld	s5,192(a4)
    80002b0c:	0007ba03          	ld	s4,0(a5)
    80002b10:	03f97793          	andi	a5,s2,63
    80002b14:	00001517          	auipc	a0,0x1
    80002b18:	e5c50513          	addi	a0,a0,-420 # 80003970 <main+0x1a0>
    80002b1c:	00fa5a33          	srl	s4,s4,a5
    80002b20:	0ffa7a13          	zext.b	s4,s4
    80002b24:	095000ef          	jal	800033b8 <printf>
    80002b28:	00098693          	mv	a3,s3
    80002b2c:	000a0613          	mv	a2,s4
    80002b30:	000a8593          	mv	a1,s5
    80002b34:	00001517          	auipc	a0,0x1
    80002b38:	da450513          	addi	a0,a0,-604 # 800038d8 <main+0x108>
    80002b3c:	07d000ef          	jal	800033b8 <printf>
    80002b40:	00098613          	mv	a2,s3
    80002b44:	000a0593          	mv	a1,s4
    80002b48:	000a8513          	mv	a0,s5
    80002b4c:	00747413          	andi	s0,s0,7
    80002b50:	d3cff0ef          	jal	8000208c <set_seed>
    80002b54:	00649493          	slli	s1,s1,0x6
    80002b58:	00341413          	slli	s0,s0,0x3
    80002b5c:	40000737          	lui	a4,0x40000
    80002b60:	02073783          	ld	a5,32(a4) # 40000020 <buflen.1+0x3fffffe0>
    80002b64:	fe079ee3          	bnez	a5,80002b60 <Verification+0xe8>
    80002b68:	01373023          	sd	s3,0(a4)
    80002b6c:	04000793          	li	a5,64
    80002b70:	00f73423          	sd	a5,8(a4)
    80002b74:	00f73823          	sd	a5,16(a4)
    80002b78:	00073c23          	sd	zero,24(a4)
    80002b7c:	00100793          	li	a5,1
    80002b80:	02f73023          	sd	a5,32(a4)
    80002b84:	40000737          	lui	a4,0x40000
    80002b88:	02073783          	ld	a5,32(a4) # 40000020 <buflen.1+0x3fffffe0>
    80002b8c:	fe079ee3          	bnez	a5,80002b88 <Verification+0x110>
    80002b90:	50002737          	lui	a4,0x50002
    80002b94:	02873783          	ld	a5,40(a4) # 50002028 <buflen.1+0x50001fe8>
    80002b98:	fe079ee3          	bnez	a5,80002b94 <Verification+0x11c>
    80002b9c:	04000793          	li	a5,64
    80002ba0:	00f73c23          	sd	a5,24(a4)
    80002ba4:	00200793          	li	a5,2
    80002ba8:	02f73023          	sd	a5,32(a4)
    80002bac:	50002737          	lui	a4,0x50002
    80002bb0:	02873783          	ld	a5,40(a4) # 50002028 <buflen.1+0x50001fe8>
    80002bb4:	fe079ee3          	bnez	a5,80002bb0 <Verification+0x138>
    80002bb8:	00800793          	li	a5,8
    80002bbc:	02f73023          	sd	a5,32(a4)
    80002bc0:	00100713          	li	a4,1
    80002bc4:	500007b7          	lui	a5,0x50000
    80002bc8:	00e7b823          	sd	a4,16(a5) # 50000010 <buflen.1+0x4fffffd0>
    80002bcc:	50000737          	lui	a4,0x50000
    80002bd0:	01873783          	ld	a5,24(a4) # 50000018 <buflen.1+0x4fffffd8>
    80002bd4:	0017f793          	andi	a5,a5,1
    80002bd8:	fe079ce3          	bnez	a5,80002bd0 <Verification+0x158>
    80002bdc:	04000793          	li	a5,64
    80002be0:	00f73023          	sd	a5,0(a4)
    80002be4:	00100793          	li	a5,1
    80002be8:	00f73423          	sd	a5,8(a4)
    80002bec:	50000737          	lui	a4,0x50000
    80002bf0:	00873783          	ld	a5,8(a4) # 50000008 <buflen.1+0x4fffffc8>
    80002bf4:	fe079ee3          	bnez	a5,80002bf0 <Verification+0x178>
    80002bf8:	02073023          	sd	zero,32(a4)
    80002bfc:	1ff00793          	li	a5,511
    80002c00:	02f73423          	sd	a5,40(a4)
    80002c04:	00200793          	li	a5,2
    80002c08:	00f73823          	sd	a5,16(a4)
    80002c0c:	50000737          	lui	a4,0x50000
    80002c10:	01873783          	ld	a5,24(a4) # 50000018 <buflen.1+0x4fffffd8>
    80002c14:	0017f793          	andi	a5,a5,1
    80002c18:	fe079ce3          	bnez	a5,80002c10 <Verification+0x198>
    80002c1c:	0c000793          	li	a5,192
    80002c20:	00f73023          	sd	a5,0(a4)
    80002c24:	00100793          	li	a5,1
    80002c28:	00f73423          	sd	a5,8(a4)
    80002c2c:	50000737          	lui	a4,0x50000
    80002c30:	00873783          	ld	a5,8(a4) # 50000008 <buflen.1+0x4fffffc8>
    80002c34:	fe079ee3          	bnez	a5,80002c30 <Verification+0x1b8>
    80002c38:	03273023          	sd	s2,32(a4)
    80002c3c:	00790913          	addi	s2,s2,7
    80002c40:	03273423          	sd	s2,40(a4)
    80002c44:	00200793          	li	a5,2
    80002c48:	00f73823          	sd	a5,16(a4)
    80002c4c:	50000737          	lui	a4,0x50000
    80002c50:	01873783          	ld	a5,24(a4) # 50000018 <buflen.1+0x4fffffd8>
    80002c54:	0017f793          	andi	a5,a5,1
    80002c58:	fe079ce3          	bnez	a5,80002c50 <Verification+0x1d8>
    80002c5c:	00400793          	li	a5,4
    80002c60:	00f73823          	sd	a5,16(a4)
    80002c64:	50000737          	lui	a4,0x50000
    80002c68:	01873783          	ld	a5,24(a4) # 50000018 <buflen.1+0x4fffffd8>
    80002c6c:	0017f793          	andi	a5,a5,1
    80002c70:	fe079ce3          	bnez	a5,80002c68 <Verification+0x1f0>
    80002c74:	400027b7          	lui	a5,0x40002
    80002c78:	03073583          	ld	a1,48(a4)
    80002c7c:	e087b783          	ld	a5,-504(a5) # 40001e08 <buflen.1+0x40001dc8>
    80002c80:	0017f713          	andi	a4,a5,1
    80002c84:	00070a63          	beqz	a4,80002c98 <Verification+0x220>
    80002c88:	fc07f693          	andi	a3,a5,-64
    80002c8c:	04d48863          	beq	s1,a3,80002cdc <Verification+0x264>
    80002c90:	0027f793          	andi	a5,a5,2
    80002c94:	08079a63          	bnez	a5,80002d28 <Verification+0x2b0>
    80002c98:	40000737          	lui	a4,0x40000
    80002c9c:	02073783          	ld	a5,32(a4) # 40000020 <buflen.1+0x3fffffe0>
    80002ca0:	fe079ee3          	bnez	a5,80002c9c <Verification+0x224>
    80002ca4:	00973023          	sd	s1,0(a4)
    80002ca8:	08000793          	li	a5,128
    80002cac:	00f73423          	sd	a5,8(a4)
    80002cb0:	04000793          	li	a5,64
    80002cb4:	00f73823          	sd	a5,16(a4)
    80002cb8:	00073c23          	sd	zero,24(a4)
    80002cbc:	00100793          	li	a5,1
    80002cc0:	02f73023          	sd	a5,32(a4)
    80002cc4:	40000737          	lui	a4,0x40000
    80002cc8:	02073783          	ld	a5,32(a4) # 40000020 <buflen.1+0x3fffffe0>
    80002ccc:	fe079ee3          	bnez	a5,80002cc8 <Verification+0x250>
    80002cd0:	0014e493          	ori	s1,s1,1
    80002cd4:	400027b7          	lui	a5,0x40002
    80002cd8:	e097b423          	sd	s1,-504(a5) # 40001e08 <buflen.1+0x40001dc8>
    80002cdc:	400017b7          	lui	a5,0x40001
    80002ce0:	08078793          	addi	a5,a5,128 # 40001080 <buflen.1+0x40001040>
    80002ce4:	00f40433          	add	s0,s0,a5
    80002ce8:	00043603          	ld	a2,0(s0) # 2520000 <buflen.1+0x251ffc0>
    80002cec:	50002737          	lui	a4,0x50002
    80002cf0:	06b61a63          	bne	a2,a1,80002d64 <Verification+0x2ec>
    80002cf4:	02873783          	ld	a5,40(a4) # 50002028 <buflen.1+0x50001fe8>
    80002cf8:	fe079ee3          	bnez	a5,80002cf4 <Verification+0x27c>
    80002cfc:	05813083          	ld	ra,88(sp)
    80002d00:	05013403          	ld	s0,80(sp)
    80002d04:	01000793          	li	a5,16
    80002d08:	02f73023          	sd	a5,32(a4)
    80002d0c:	04813483          	ld	s1,72(sp)
    80002d10:	04013903          	ld	s2,64(sp)
    80002d14:	03813983          	ld	s3,56(sp)
    80002d18:	03013a03          	ld	s4,48(sp)
    80002d1c:	02813a83          	ld	s5,40(sp)
    80002d20:	06010113          	addi	sp,sp,96
    80002d24:	00008067          	ret
    80002d28:	40000737          	lui	a4,0x40000
    80002d2c:	02073783          	ld	a5,32(a4) # 40000020 <buflen.1+0x3fffffe0>
    80002d30:	fe079ee3          	bnez	a5,80002d2c <Verification+0x2b4>
    80002d34:	00d73023          	sd	a3,0(a4)
    80002d38:	08000793          	li	a5,128
    80002d3c:	00f73423          	sd	a5,8(a4)
    80002d40:	04000793          	li	a5,64
    80002d44:	00f73823          	sd	a5,16(a4)
    80002d48:	00100793          	li	a5,1
    80002d4c:	00f73c23          	sd	a5,24(a4)
    80002d50:	02f73023          	sd	a5,32(a4)
    80002d54:	40000737          	lui	a4,0x40000
    80002d58:	02073783          	ld	a5,32(a4) # 40000020 <buflen.1+0x3fffffe0>
    80002d5c:	fe079ee3          	bnez	a5,80002d58 <Verification+0x2e0>
    80002d60:	f39ff06f          	j	80002c98 <Verification+0x220>
    80002d64:	00001517          	auipc	a0,0x1
    80002d68:	c4c50513          	addi	a0,a0,-948 # 800039b0 <main+0x1e0>
    80002d6c:	64c000ef          	jal	800033b8 <printf>
    80002d70:	00100513          	li	a0,1
    80002d74:	548000ef          	jal	800032bc <exit>
    80002d78:	00001517          	auipc	a0,0x1
    80002d7c:	bb050513          	addi	a0,a0,-1104 # 80003928 <main+0x158>
    80002d80:	638000ef          	jal	800033b8 <printf>
    80002d84:	00100513          	li	a0,1
    80002d88:	534000ef          	jal	800032bc <exit>

0000000080002d8c <vprintfmt>:
    80002d8c:	e9010113          	addi	sp,sp,-368
    80002d90:	16813023          	sd	s0,352(sp)
    80002d94:	14913c23          	sd	s1,344(sp)
    80002d98:	15213823          	sd	s2,336(sp)
    80002d9c:	15413023          	sd	s4,320(sp)
    80002da0:	13513c23          	sd	s5,312(sp)
    80002da4:	13613823          	sd	s6,304(sp)
    80002da8:	13713423          	sd	s7,296(sp)
    80002dac:	16113423          	sd	ra,360(sp)
    80002db0:	15313423          	sd	s3,328(sp)
    80002db4:	13813023          	sd	s8,288(sp)
    80002db8:	11913c23          	sd	s9,280(sp)
    80002dbc:	11a13823          	sd	s10,272(sp)
    80002dc0:	11b13423          	sd	s11,264(sp)
    80002dc4:	00050913          	mv	s2,a0
    80002dc8:	00058493          	mv	s1,a1
    80002dcc:	00060413          	mv	s0,a2
    80002dd0:	00068a93          	mv	s5,a3
    80002dd4:	02500a13          	li	s4,37
    80002dd8:	05500b93          	li	s7,85
    80002ddc:	a2818b13          	addi	s6,gp,-1496 # 80003a70 <level_base_addr+0x20>
    80002de0:	0140006f          	j	80002df4 <vprintfmt+0x68>
    80002de4:	04050c63          	beqz	a0,80002e3c <vprintfmt+0xb0>
    80002de8:	00048593          	mv	a1,s1
    80002dec:	00140413          	addi	s0,s0,1
    80002df0:	000900e7          	jalr	s2
    80002df4:	00044503          	lbu	a0,0(s0)
    80002df8:	ff4516e3          	bne	a0,s4,80002de4 <vprintfmt+0x58>
    80002dfc:	00144683          	lbu	a3,1(s0)
    80002e00:	00140993          	addi	s3,s0,1
    80002e04:	00098713          	mv	a4,s3
    80002e08:	02000c93          	li	s9,32
    80002e0c:	fff00c13          	li	s8,-1
    80002e10:	fff00d93          	li	s11,-1
    80002e14:	00000613          	li	a2,0
    80002e18:	fdd6879b          	addiw	a5,a3,-35
    80002e1c:	0ff7f793          	zext.b	a5,a5
    80002e20:	00170413          	addi	s0,a4,1
    80002e24:	06fbe863          	bltu	s7,a5,80002e94 <vprintfmt+0x108>
    80002e28:	00279793          	slli	a5,a5,0x2
    80002e2c:	016787b3          	add	a5,a5,s6
    80002e30:	0007a783          	lw	a5,0(a5)
    80002e34:	016787b3          	add	a5,a5,s6
    80002e38:	00078067          	jr	a5
    80002e3c:	16813083          	ld	ra,360(sp)
    80002e40:	16013403          	ld	s0,352(sp)
    80002e44:	15813483          	ld	s1,344(sp)
    80002e48:	15013903          	ld	s2,336(sp)
    80002e4c:	14813983          	ld	s3,328(sp)
    80002e50:	14013a03          	ld	s4,320(sp)
    80002e54:	13813a83          	ld	s5,312(sp)
    80002e58:	13013b03          	ld	s6,304(sp)
    80002e5c:	12813b83          	ld	s7,296(sp)
    80002e60:	12013c03          	ld	s8,288(sp)
    80002e64:	11813c83          	ld	s9,280(sp)
    80002e68:	11013d03          	ld	s10,272(sp)
    80002e6c:	10813d83          	ld	s11,264(sp)
    80002e70:	17010113          	addi	sp,sp,368
    80002e74:	00008067          	ret
    80002e78:	00068c93          	mv	s9,a3
    80002e7c:	00174683          	lbu	a3,1(a4)
    80002e80:	00040713          	mv	a4,s0
    80002e84:	00170413          	addi	s0,a4,1
    80002e88:	fdd6879b          	addiw	a5,a3,-35
    80002e8c:	0ff7f793          	zext.b	a5,a5
    80002e90:	f8fbfce3          	bgeu	s7,a5,80002e28 <vprintfmt+0x9c>
    80002e94:	00048593          	mv	a1,s1
    80002e98:	02500513          	li	a0,37
    80002e9c:	000900e7          	jalr	s2
    80002ea0:	00098413          	mv	s0,s3
    80002ea4:	f51ff06f          	j	80002df4 <vprintfmt+0x68>
    80002ea8:	fd068c1b          	addiw	s8,a3,-48
    80002eac:	00174683          	lbu	a3,1(a4)
    80002eb0:	00900793          	li	a5,9
    80002eb4:	fd06871b          	addiw	a4,a3,-48
    80002eb8:	0006859b          	sext.w	a1,a3
    80002ebc:	2ce7e663          	bltu	a5,a4,80003188 <vprintfmt+0x3fc>
    80002ec0:	00040713          	mv	a4,s0
    80002ec4:	00900813          	li	a6,9
    80002ec8:	00174683          	lbu	a3,1(a4)
    80002ecc:	002c179b          	slliw	a5,s8,0x2
    80002ed0:	018787bb          	addw	a5,a5,s8
    80002ed4:	0017979b          	slliw	a5,a5,0x1
    80002ed8:	00b787bb          	addw	a5,a5,a1
    80002edc:	fd06851b          	addiw	a0,a3,-48
    80002ee0:	00170713          	addi	a4,a4,1
    80002ee4:	fd078c1b          	addiw	s8,a5,-48
    80002ee8:	0006859b          	sext.w	a1,a3
    80002eec:	fca87ee3          	bgeu	a6,a0,80002ec8 <vprintfmt+0x13c>
    80002ef0:	f20dd4e3          	bgez	s11,80002e18 <vprintfmt+0x8c>
    80002ef4:	000c0d93          	mv	s11,s8
    80002ef8:	fff00c13          	li	s8,-1
    80002efc:	f1dff06f          	j	80002e18 <vprintfmt+0x8c>
    80002f00:	00174683          	lbu	a3,1(a4)
    80002f04:	00040713          	mv	a4,s0
    80002f08:	f11ff06f          	j	80002e18 <vprintfmt+0x8c>
    80002f0c:	00048593          	mv	a1,s1
    80002f10:	02500513          	li	a0,37
    80002f14:	000900e7          	jalr	s2
    80002f18:	eddff06f          	j	80002df4 <vprintfmt+0x68>
    80002f1c:	000aac03          	lw	s8,0(s5)
    80002f20:	00174683          	lbu	a3,1(a4)
    80002f24:	008a8a93          	addi	s5,s5,8
    80002f28:	00040713          	mv	a4,s0
    80002f2c:	fc5ff06f          	j	80002ef0 <vprintfmt+0x164>
    80002f30:	03000513          	li	a0,48
    80002f34:	00048593          	mv	a1,s1
    80002f38:	000900e7          	jalr	s2
    80002f3c:	00048593          	mv	a1,s1
    80002f40:	07800513          	li	a0,120
    80002f44:	000900e7          	jalr	s2
    80002f48:	01000693          	li	a3,16
    80002f4c:	008a8713          	addi	a4,s5,8
    80002f50:	000ab783          	ld	a5,0(s5)
    80002f54:	00070a93          	mv	s5,a4
    80002f58:	02d7f5b3          	remu	a1,a5,a3
    80002f5c:	000c899b          	sext.w	s3,s9
    80002f60:	00410613          	addi	a2,sp,4
    80002f64:	00100713          	li	a4,1
    80002f68:	00b12023          	sw	a1,0(sp)
    80002f6c:	1ed7e063          	bltu	a5,a3,8000314c <vprintfmt+0x3c0>
    80002f70:	02d7d7b3          	divu	a5,a5,a3
    80002f74:	00460613          	addi	a2,a2,4
    80002f78:	00070c13          	mv	s8,a4
    80002f7c:	0017071b          	addiw	a4,a4,1
    80002f80:	02d7f5b3          	remu	a1,a5,a3
    80002f84:	feb62e23          	sw	a1,-4(a2)
    80002f88:	fed7f4e3          	bgeu	a5,a3,80002f70 <vprintfmt+0x1e4>
    80002f8c:	fffd8c9b          	addiw	s9,s11,-1
    80002f90:	fff70d1b          	addiw	s10,a4,-1
    80002f94:	01b75c63          	bge	a4,s11,80002fac <vprintfmt+0x220>
    80002f98:	fffc8c9b          	addiw	s9,s9,-1 # 251ffff <buflen.1+0x251ffbf>
    80002f9c:	00048593          	mv	a1,s1
    80002fa0:	00098513          	mv	a0,s3
    80002fa4:	000900e7          	jalr	s2
    80002fa8:	ffac98e3          	bne	s9,s10,80002f98 <vprintfmt+0x20c>
    80002fac:	002c1c13          	slli	s8,s8,0x2
    80002fb0:	018109b3          	add	s3,sp,s8
    80002fb4:	ffc10c93          	addi	s9,sp,-4
    80002fb8:	00900c13          	li	s8,9
    80002fbc:	0009a783          	lw	a5,0(s3)
    80002fc0:	05700513          	li	a0,87
    80002fc4:	00fc6463          	bltu	s8,a5,80002fcc <vprintfmt+0x240>
    80002fc8:	03000513          	li	a0,48
    80002fcc:	ffc98993          	addi	s3,s3,-4
    80002fd0:	00048593          	mv	a1,s1
    80002fd4:	00a7853b          	addw	a0,a5,a0
    80002fd8:	000900e7          	jalr	s2
    80002fdc:	ff3c90e3          	bne	s9,s3,80002fbc <vprintfmt+0x230>
    80002fe0:	e15ff06f          	j	80002df4 <vprintfmt+0x68>
    80002fe4:	00100793          	li	a5,1
    80002fe8:	008a8c13          	addi	s8,s5,8
    80002fec:	00c7c463          	blt	a5,a2,80002ff4 <vprintfmt+0x268>
    80002ff0:	16060263          	beqz	a2,80003154 <vprintfmt+0x3c8>
    80002ff4:	000ab983          	ld	s3,0(s5)
    80002ff8:	1609ca63          	bltz	s3,8000316c <vprintfmt+0x3e0>
    80002ffc:	00098793          	mv	a5,s3
    80003000:	000c0a93          	mv	s5,s8
    80003004:	00a00693          	li	a3,10
    80003008:	f51ff06f          	j	80002f58 <vprintfmt+0x1cc>
    8000300c:	00174683          	lbu	a3,1(a4)
    80003010:	0016061b          	addiw	a2,a2,1
    80003014:	00040713          	mv	a4,s0
    80003018:	e01ff06f          	j	80002e18 <vprintfmt+0x8c>
    8000301c:	01000693          	li	a3,16
    80003020:	00100793          	li	a5,1
    80003024:	008a8713          	addi	a4,s5,8
    80003028:	f2c7c4e3          	blt	a5,a2,80002f50 <vprintfmt+0x1c4>
    8000302c:	f20612e3          	bnez	a2,80002f50 <vprintfmt+0x1c4>
    80003030:	000ae783          	lwu	a5,0(s5)
    80003034:	00070a93          	mv	s5,a4
    80003038:	f21ff06f          	j	80002f58 <vprintfmt+0x1cc>
    8000303c:	000abd03          	ld	s10,0(s5)
    80003040:	008a8a93          	addi	s5,s5,8
    80003044:	040d0e63          	beqz	s10,800030a0 <vprintfmt+0x314>
    80003048:	0db05263          	blez	s11,8000310c <vprintfmt+0x380>
    8000304c:	02d00793          	li	a5,45
    80003050:	06fc9a63          	bne	s9,a5,800030c4 <vprintfmt+0x338>
    80003054:	000d4503          	lbu	a0,0(s10)
    80003058:	02050863          	beqz	a0,80003088 <vprintfmt+0x2fc>
    8000305c:	fff00993          	li	s3,-1
    80003060:	000c4663          	bltz	s8,8000306c <vprintfmt+0x2e0>
    80003064:	fffc0c1b          	addiw	s8,s8,-1
    80003068:	013c0e63          	beq	s8,s3,80003084 <vprintfmt+0x2f8>
    8000306c:	00048593          	mv	a1,s1
    80003070:	001d0d13          	addi	s10,s10,1
    80003074:	000900e7          	jalr	s2
    80003078:	000d4503          	lbu	a0,0(s10)
    8000307c:	fffd8d9b          	addiw	s11,s11,-1
    80003080:	fe0510e3          	bnez	a0,80003060 <vprintfmt+0x2d4>
    80003084:	d7b058e3          	blez	s11,80002df4 <vprintfmt+0x68>
    80003088:	fffd8d9b          	addiw	s11,s11,-1
    8000308c:	00048593          	mv	a1,s1
    80003090:	02000513          	li	a0,32
    80003094:	000900e7          	jalr	s2
    80003098:	fe0d98e3          	bnez	s11,80003088 <vprintfmt+0x2fc>
    8000309c:	d59ff06f          	j	80002df4 <vprintfmt+0x68>
    800030a0:	00001d17          	auipc	s10,0x1
    800030a4:	968d0d13          	addi	s10,s10,-1688 # 80003a08 <main+0x238>
    800030a8:	02800513          	li	a0,40
    800030ac:	fbb058e3          	blez	s11,8000305c <vprintfmt+0x2d0>
    800030b0:	02d00793          	li	a5,45
    800030b4:	00001d17          	auipc	s10,0x1
    800030b8:	954d0d13          	addi	s10,s10,-1708 # 80003a08 <main+0x238>
    800030bc:	02800513          	li	a0,40
    800030c0:	f8fc8ee3          	beq	s9,a5,8000305c <vprintfmt+0x2d0>
    800030c4:	000d861b          	sext.w	a2,s11
    800030c8:	000d0793          	mv	a5,s10
    800030cc:	018d06b3          	add	a3,s10,s8
    800030d0:	000c1863          	bnez	s8,800030e0 <vprintfmt+0x354>
    800030d4:	0200006f          	j	800030f4 <vprintfmt+0x368>
    800030d8:	00178793          	addi	a5,a5,1
    800030dc:	00d78663          	beq	a5,a3,800030e8 <vprintfmt+0x35c>
    800030e0:	0007c703          	lbu	a4,0(a5)
    800030e4:	fe071ae3          	bnez	a4,800030d8 <vprintfmt+0x34c>
    800030e8:	41a787b3          	sub	a5,a5,s10
    800030ec:	40f60dbb          	subw	s11,a2,a5
    800030f0:	01b05e63          	blez	s11,8000310c <vprintfmt+0x380>
    800030f4:	000c8c9b          	sext.w	s9,s9
    800030f8:	fffd8d9b          	addiw	s11,s11,-1
    800030fc:	00048593          	mv	a1,s1
    80003100:	000c8513          	mv	a0,s9
    80003104:	000900e7          	jalr	s2
    80003108:	fe0d98e3          	bnez	s11,800030f8 <vprintfmt+0x36c>
    8000310c:	000d4503          	lbu	a0,0(s10)
    80003110:	ce0502e3          	beqz	a0,80002df4 <vprintfmt+0x68>
    80003114:	fff00993          	li	s3,-1
    80003118:	f49ff06f          	j	80003060 <vprintfmt+0x2d4>
    8000311c:	fffdc793          	not	a5,s11
    80003120:	43f7d793          	srai	a5,a5,0x3f
    80003124:	00fdf7b3          	and	a5,s11,a5
    80003128:	00174683          	lbu	a3,1(a4)
    8000312c:	00078d9b          	sext.w	s11,a5
    80003130:	00040713          	mv	a4,s0
    80003134:	ce5ff06f          	j	80002e18 <vprintfmt+0x8c>
    80003138:	000aa503          	lw	a0,0(s5)
    8000313c:	00048593          	mv	a1,s1
    80003140:	008a8a93          	addi	s5,s5,8
    80003144:	000900e7          	jalr	s2
    80003148:	cadff06f          	j	80002df4 <vprintfmt+0x68>
    8000314c:	00000c13          	li	s8,0
    80003150:	e3dff06f          	j	80002f8c <vprintfmt+0x200>
    80003154:	000aa983          	lw	s3,0(s5)
    80003158:	ea1ff06f          	j	80002ff8 <vprintfmt+0x26c>
    8000315c:	00a00693          	li	a3,10
    80003160:	ec1ff06f          	j	80003020 <vprintfmt+0x294>
    80003164:	00800693          	li	a3,8
    80003168:	eb9ff06f          	j	80003020 <vprintfmt+0x294>
    8000316c:	00048593          	mv	a1,s1
    80003170:	02d00513          	li	a0,45
    80003174:	000900e7          	jalr	s2
    80003178:	000c0a93          	mv	s5,s8
    8000317c:	413007b3          	neg	a5,s3
    80003180:	00a00693          	li	a3,10
    80003184:	dd5ff06f          	j	80002f58 <vprintfmt+0x1cc>
    80003188:	00040713          	mv	a4,s0
    8000318c:	d65ff06f          	j	80002ef0 <vprintfmt+0x164>

0000000080003190 <sprintf_putch.0>:
    80003190:	0005b783          	ld	a5,0(a1)
    80003194:	00a78023          	sb	a0,0(a5)
    80003198:	0005b783          	ld	a5,0(a1)
    8000319c:	00178793          	addi	a5,a5,1
    800031a0:	00f5b023          	sd	a5,0(a1)
    800031a4:	00008067          	ret

00000000800031a8 <putchar>:
    800031a8:	04022803          	lw	a6,64(tp) # 40 <buflen.1>
    800031ac:	00020793          	mv	a5,tp
    800031b0:	010787b3          	add	a5,a5,a6
    800031b4:	f9010113          	addi	sp,sp,-112
    800031b8:	0018069b          	addiw	a3,a6,1
    800031bc:	04d22023          	sw	a3,64(tp) # 40 <buflen.1>
    800031c0:	00a78023          	sb	a0,0(a5)
    800031c4:	03f10713          	addi	a4,sp,63
    800031c8:	00a00793          	li	a5,10
    800031cc:	fc077713          	andi	a4,a4,-64
    800031d0:	00f50c63          	beq	a0,a5,800031e8 <putchar+0x40>
    800031d4:	04000793          	li	a5,64
    800031d8:	00f68863          	beq	a3,a5,800031e8 <putchar+0x40>
    800031dc:	00000513          	li	a0,0
    800031e0:	07010113          	addi	sp,sp,112
    800031e4:	00008067          	ret
    800031e8:	04000793          	li	a5,64
    800031ec:	00f73023          	sd	a5,0(a4)
    800031f0:	00100793          	li	a5,1
    800031f4:	00f73423          	sd	a5,8(a4)
    800031f8:	00020613          	mv	a2,tp
    800031fc:	00c73823          	sd	a2,16(a4)
    80003200:	00d73c23          	sd	a3,24(a4)
    80003204:	0ff0000f          	fence
    80003208:	ffffe697          	auipc	a3,0xffffe
    8000320c:	e3868693          	addi	a3,a3,-456 # 80001040 <fromhost>
    80003210:	ffffe797          	auipc	a5,0xffffe
    80003214:	dee7b823          	sd	a4,-528(a5) # 80001000 <tohost>
    80003218:	0006b783          	ld	a5,0(a3)
    8000321c:	fe078ee3          	beqz	a5,80003218 <putchar+0x70>
    80003220:	ffffe797          	auipc	a5,0xffffe
    80003224:	e207b023          	sd	zero,-480(a5) # 80001040 <fromhost>
    80003228:	0ff0000f          	fence
    8000322c:	04022023          	sw	zero,64(tp) # 40 <buflen.1>
    80003230:	00073783          	ld	a5,0(a4)
    80003234:	00000513          	li	a0,0
    80003238:	07010113          	addi	sp,sp,112
    8000323c:	00008067          	ret

0000000080003240 <setStats>:
    80003240:	b0002773          	csrr	a4,mcycle
    80003244:	b8018793          	addi	a5,gp,-1152 # 80003bc8 <counters>
    80003248:	00050a63          	beqz	a0,8000325c <setStats+0x1c>
    8000324c:	00e7b023          	sd	a4,0(a5)
    80003250:	b0202773          	csrr	a4,minstret
    80003254:	00e7b423          	sd	a4,8(a5)
    80003258:	00008067          	ret
    8000325c:	0007b683          	ld	a3,0(a5)
    80003260:	00000617          	auipc	a2,0x0
    80003264:	7b060613          	addi	a2,a2,1968 # 80003a10 <main+0x240>
    80003268:	00c7b823          	sd	a2,16(a5)
    8000326c:	40d70733          	sub	a4,a4,a3
    80003270:	00e7b023          	sd	a4,0(a5)
    80003274:	b0202773          	csrr	a4,minstret
    80003278:	0087b683          	ld	a3,8(a5)
    8000327c:	00000617          	auipc	a2,0x0
    80003280:	79c60613          	addi	a2,a2,1948 # 80003a18 <main+0x248>
    80003284:	00c7bc23          	sd	a2,24(a5)
    80003288:	40d70733          	sub	a4,a4,a3
    8000328c:	00e7b423          	sd	a4,8(a5)
    80003290:	00008067          	ret

0000000080003294 <tohost_exit>:
    80003294:	00151793          	slli	a5,a0,0x1
    80003298:	0017e793          	ori	a5,a5,1
    8000329c:	ffffe717          	auipc	a4,0xffffe
    800032a0:	d6f73223          	sd	a5,-668(a4) # 80001000 <tohost>
    800032a4:	0000006f          	j	800032a4 <tohost_exit+0x10>

00000000800032a8 <handle_trap>:
    800032a8:	000017b7          	lui	a5,0x1
    800032ac:	a7378793          	addi	a5,a5,-1421 # a73 <buflen.1+0xa33>
    800032b0:	ffffe717          	auipc	a4,0xffffe
    800032b4:	d4f73823          	sd	a5,-688(a4) # 80001000 <tohost>
    800032b8:	0000006f          	j	800032b8 <handle_trap+0x10>

00000000800032bc <exit>:
    800032bc:	ff010113          	addi	sp,sp,-16
    800032c0:	00113423          	sd	ra,8(sp)
    800032c4:	fd1ff0ef          	jal	80003294 <tohost_exit>

00000000800032c8 <abort>:
    800032c8:	10d00793          	li	a5,269
    800032cc:	ffffe717          	auipc	a4,0xffffe
    800032d0:	d2f73a23          	sd	a5,-716(a4) # 80001000 <tohost>
    800032d4:	0000006f          	j	800032d4 <abort+0xc>

00000000800032d8 <printstr>:
    800032d8:	00054783          	lbu	a5,0(a0)
    800032dc:	f9010113          	addi	sp,sp,-112
    800032e0:	03f10693          	addi	a3,sp,63
    800032e4:	fc06f693          	andi	a3,a3,-64
    800032e8:	06078263          	beqz	a5,8000334c <printstr+0x74>
    800032ec:	00050793          	mv	a5,a0
    800032f0:	0017c703          	lbu	a4,1(a5)
    800032f4:	00178793          	addi	a5,a5,1
    800032f8:	fe071ce3          	bnez	a4,800032f0 <printstr+0x18>
    800032fc:	40a787b3          	sub	a5,a5,a0
    80003300:	04000713          	li	a4,64
    80003304:	00e6b023          	sd	a4,0(a3)
    80003308:	00100713          	li	a4,1
    8000330c:	00e6b423          	sd	a4,8(a3)
    80003310:	00a6b823          	sd	a0,16(a3)
    80003314:	00f6bc23          	sd	a5,24(a3)
    80003318:	0ff0000f          	fence
    8000331c:	ffffe717          	auipc	a4,0xffffe
    80003320:	d2470713          	addi	a4,a4,-732 # 80001040 <fromhost>
    80003324:	ffffe797          	auipc	a5,0xffffe
    80003328:	ccd7be23          	sd	a3,-804(a5) # 80001000 <tohost>
    8000332c:	00073783          	ld	a5,0(a4)
    80003330:	fe078ee3          	beqz	a5,8000332c <printstr+0x54>
    80003334:	ffffe797          	auipc	a5,0xffffe
    80003338:	d007b623          	sd	zero,-756(a5) # 80001040 <fromhost>
    8000333c:	0ff0000f          	fence
    80003340:	0006b783          	ld	a5,0(a3)
    80003344:	07010113          	addi	sp,sp,112
    80003348:	00008067          	ret
    8000334c:	00000793          	li	a5,0
    80003350:	fb1ff06f          	j	80003300 <printstr+0x28>

0000000080003354 <thread_entry>:
    80003354:	00051063          	bnez	a0,80003354 <thread_entry>
    80003358:	00008067          	ret

000000008000335c <printhex>:
    8000335c:	fd010113          	addi	sp,sp,-48
    80003360:	00050793          	mv	a5,a0
    80003364:	02113423          	sd	ra,40(sp)
    80003368:	00810513          	addi	a0,sp,8
    8000336c:	01710713          	addi	a4,sp,23
    80003370:	00900813          	li	a6,9
    80003374:	0080006f          	j	8000337c <printhex+0x20>
    80003378:	00068713          	mv	a4,a3
    8000337c:	00f7f613          	andi	a2,a5,15
    80003380:	00060693          	mv	a3,a2
    80003384:	05700593          	li	a1,87
    80003388:	00c86463          	bltu	a6,a2,80003390 <printhex+0x34>
    8000338c:	03000593          	li	a1,48
    80003390:	00b686bb          	addw	a3,a3,a1
    80003394:	00d70023          	sb	a3,0(a4)
    80003398:	0047d793          	srli	a5,a5,0x4
    8000339c:	fff70693          	addi	a3,a4,-1
    800033a0:	fce51ce3          	bne	a0,a4,80003378 <printhex+0x1c>
    800033a4:	00010c23          	sb	zero,24(sp)
    800033a8:	f31ff0ef          	jal	800032d8 <printstr>
    800033ac:	02813083          	ld	ra,40(sp)
    800033b0:	03010113          	addi	sp,sp,48
    800033b4:	00008067          	ret

00000000800033b8 <printf>:
    800033b8:	fa010113          	addi	sp,sp,-96
    800033bc:	02810313          	addi	t1,sp,40
    800033c0:	00050e13          	mv	t3,a0
    800033c4:	02b13423          	sd	a1,40(sp)
    800033c8:	02c13823          	sd	a2,48(sp)
    800033cc:	02d13c23          	sd	a3,56(sp)
    800033d0:	00000517          	auipc	a0,0x0
    800033d4:	dd850513          	addi	a0,a0,-552 # 800031a8 <putchar>
    800033d8:	00030693          	mv	a3,t1
    800033dc:	000e0613          	mv	a2,t3
    800033e0:	00000593          	li	a1,0
    800033e4:	00113c23          	sd	ra,24(sp)
    800033e8:	04e13023          	sd	a4,64(sp)
    800033ec:	04f13423          	sd	a5,72(sp)
    800033f0:	05013823          	sd	a6,80(sp)
    800033f4:	05113c23          	sd	a7,88(sp)
    800033f8:	00613423          	sd	t1,8(sp)
    800033fc:	991ff0ef          	jal	80002d8c <vprintfmt>
    80003400:	01813083          	ld	ra,24(sp)
    80003404:	00000513          	li	a0,0
    80003408:	06010113          	addi	sp,sp,96
    8000340c:	00008067          	ret

0000000080003410 <sprintf>:
    80003410:	fa010113          	addi	sp,sp,-96
    80003414:	03010313          	addi	t1,sp,48
    80003418:	02813023          	sd	s0,32(sp)
    8000341c:	00a13423          	sd	a0,8(sp)
    80003420:	02c13823          	sd	a2,48(sp)
    80003424:	02d13c23          	sd	a3,56(sp)
    80003428:	00050413          	mv	s0,a0
    8000342c:	00058613          	mv	a2,a1
    80003430:	00000517          	auipc	a0,0x0
    80003434:	d6050513          	addi	a0,a0,-672 # 80003190 <sprintf_putch.0>
    80003438:	00810593          	addi	a1,sp,8
    8000343c:	00030693          	mv	a3,t1
    80003440:	02113423          	sd	ra,40(sp)
    80003444:	04f13423          	sd	a5,72(sp)
    80003448:	04e13023          	sd	a4,64(sp)
    8000344c:	05013823          	sd	a6,80(sp)
    80003450:	05113c23          	sd	a7,88(sp)
    80003454:	00613c23          	sd	t1,24(sp)
    80003458:	935ff0ef          	jal	80002d8c <vprintfmt>
    8000345c:	00813783          	ld	a5,8(sp)
    80003460:	00078023          	sb	zero,0(a5)
    80003464:	00813503          	ld	a0,8(sp)
    80003468:	02813083          	ld	ra,40(sp)
    8000346c:	4085053b          	subw	a0,a0,s0
    80003470:	02013403          	ld	s0,32(sp)
    80003474:	06010113          	addi	sp,sp,96
    80003478:	00008067          	ret

000000008000347c <memcpy>:
    8000347c:	00b567b3          	or	a5,a0,a1
    80003480:	00c7e7b3          	or	a5,a5,a2
    80003484:	0077f793          	andi	a5,a5,7
    80003488:	00c50833          	add	a6,a0,a2
    8000348c:	02078463          	beqz	a5,800034b4 <memcpy+0x38>
    80003490:	00c58633          	add	a2,a1,a2
    80003494:	00050793          	mv	a5,a0
    80003498:	0b057663          	bgeu	a0,a6,80003544 <memcpy+0xc8>
    8000349c:	0005c703          	lbu	a4,0(a1)
    800034a0:	00158593          	addi	a1,a1,1
    800034a4:	00178793          	addi	a5,a5,1
    800034a8:	fee78fa3          	sb	a4,-1(a5)
    800034ac:	fec598e3          	bne	a1,a2,8000349c <memcpy+0x20>
    800034b0:	00008067          	ret
    800034b4:	04050693          	addi	a3,a0,64
    800034b8:	0906f863          	bgeu	a3,a6,80003548 <memcpy+0xcc>
    800034bc:	00068793          	mv	a5,a3
    800034c0:	00058713          	mv	a4,a1
    800034c4:	00073383          	ld	t2,0(a4)
    800034c8:	00873283          	ld	t0,8(a4)
    800034cc:	01073f83          	ld	t6,16(a4)
    800034d0:	01873f03          	ld	t5,24(a4)
    800034d4:	02073e83          	ld	t4,32(a4)
    800034d8:	02873e03          	ld	t3,40(a4)
    800034dc:	03073303          	ld	t1,48(a4)
    800034e0:	03873883          	ld	a7,56(a4)
    800034e4:	04078793          	addi	a5,a5,64
    800034e8:	f877b023          	sd	t2,-128(a5)
    800034ec:	f857b423          	sd	t0,-120(a5)
    800034f0:	f9f7b823          	sd	t6,-112(a5)
    800034f4:	f9e7bc23          	sd	t5,-104(a5)
    800034f8:	fbd7b023          	sd	t4,-96(a5)
    800034fc:	fbc7b423          	sd	t3,-88(a5)
    80003500:	fa67b823          	sd	t1,-80(a5)
    80003504:	fb17bc23          	sd	a7,-72(a5)
    80003508:	04070713          	addi	a4,a4,64
    8000350c:	fb07ece3          	bltu	a5,a6,800034c4 <memcpy+0x48>
    80003510:	fbf60613          	addi	a2,a2,-65
    80003514:	fc067793          	andi	a5,a2,-64
    80003518:	04078793          	addi	a5,a5,64
    8000351c:	fc067613          	andi	a2,a2,-64
    80003520:	00f585b3          	add	a1,a1,a5
    80003524:	00c687b3          	add	a5,a3,a2
    80003528:	f907f4e3          	bgeu	a5,a6,800034b0 <memcpy+0x34>
    8000352c:	0005b703          	ld	a4,0(a1)
    80003530:	00878793          	addi	a5,a5,8
    80003534:	00858593          	addi	a1,a1,8
    80003538:	fee7bc23          	sd	a4,-8(a5)
    8000353c:	ff07e8e3          	bltu	a5,a6,8000352c <memcpy+0xb0>
    80003540:	00008067          	ret
    80003544:	00008067          	ret
    80003548:	00050793          	mv	a5,a0
    8000354c:	fddff06f          	j	80003528 <memcpy+0xac>

0000000080003550 <memset>:
    80003550:	00c567b3          	or	a5,a0,a2
    80003554:	0077f793          	andi	a5,a5,7
    80003558:	00c50633          	add	a2,a0,a2
    8000355c:	0ff5f713          	zext.b	a4,a1
    80003560:	00078e63          	beqz	a5,8000357c <memset+0x2c>
    80003564:	00050793          	mv	a5,a0
    80003568:	02c57c63          	bgeu	a0,a2,800035a0 <memset+0x50>
    8000356c:	00178793          	addi	a5,a5,1
    80003570:	fee78fa3          	sb	a4,-1(a5)
    80003574:	fec79ce3          	bne	a5,a2,8000356c <memset+0x1c>
    80003578:	00008067          	ret
    8000357c:	00000797          	auipc	a5,0x0
    80003580:	2cc7b783          	ld	a5,716(a5) # 80003848 <main+0x78>
    80003584:	02f70733          	mul	a4,a4,a5
    80003588:	fec578e3          	bgeu	a0,a2,80003578 <memset+0x28>
    8000358c:	00050793          	mv	a5,a0
    80003590:	00878793          	addi	a5,a5,8
    80003594:	fee7bc23          	sd	a4,-8(a5)
    80003598:	fec7ece3          	bltu	a5,a2,80003590 <memset+0x40>
    8000359c:	00008067          	ret
    800035a0:	00008067          	ret

00000000800035a4 <_init>:
    800035a4:	f5010113          	addi	sp,sp,-176
    800035a8:	ba018793          	addi	a5,gp,-1120 # 80003be8 <_tdata_begin>
    800035ac:	09413023          	sd	s4,128(sp)
    800035b0:	ba018a13          	addi	s4,gp,-1120 # 80003be8 <_tdata_begin>
    800035b4:	09313423          	sd	s3,136(sp)
    800035b8:	40fa09b3          	sub	s3,s4,a5
    800035bc:	08913c23          	sd	s1,152(sp)
    800035c0:	09213823          	sd	s2,144(sp)
    800035c4:	00050493          	mv	s1,a0
    800035c8:	00058913          	mv	s2,a1
    800035cc:	00020513          	mv	a0,tp
    800035d0:	00078593          	mv	a1,a5
    800035d4:	00098613          	mv	a2,s3
    800035d8:	0a113423          	sd	ra,168(sp)
    800035dc:	0a813023          	sd	s0,160(sp)
    800035e0:	07513c23          	sd	s5,120(sp)
    800035e4:	00020a93          	mv	s5,tp
    800035e8:	e95ff0ef          	jal	8000347c <memcpy>
    800035ec:	bfc18613          	addi	a2,gp,-1028 # 80003c44 <_tbss_end>
    800035f0:	41460633          	sub	a2,a2,s4
    800035f4:	00000593          	li	a1,0
    800035f8:	013a8533          	add	a0,s5,s3
    800035fc:	f55ff0ef          	jal	80003550 <memset>
    80003600:	00090593          	mv	a1,s2
    80003604:	00048513          	mv	a0,s1
    80003608:	d4dff0ef          	jal	80003354 <thread_entry>
    8000360c:	00000593          	li	a1,0
    80003610:	00000513          	li	a0,0
    80003614:	1bc000ef          	jal	800037d0 <main>
    80003618:	b8018913          	addi	s2,gp,-1152 # 80003bc8 <counters>
    8000361c:	00093683          	ld	a3,0(s2)
    80003620:	03f10413          	addi	s0,sp,63
    80003624:	fc047413          	andi	s0,s0,-64
    80003628:	00050493          	mv	s1,a0
    8000362c:	04069063          	bnez	a3,8000366c <_init+0xc8>
    80003630:	00893683          	ld	a3,8(s2)
    80003634:	00069663          	bnez	a3,80003640 <_init+0x9c>
    80003638:	00048513          	mv	a0,s1
    8000363c:	c59ff0ef          	jal	80003294 <tohost_exit>
    80003640:	00040993          	mv	s3,s0
    80003644:	01893603          	ld	a2,24(s2)
    80003648:	00098513          	mv	a0,s3
    8000364c:	00000597          	auipc	a1,0x0
    80003650:	3f458593          	addi	a1,a1,1012 # 80003a40 <main+0x270>
    80003654:	dbdff0ef          	jal	80003410 <sprintf>
    80003658:	00a989b3          	add	s3,s3,a0
    8000365c:	fd340ee3          	beq	s0,s3,80003638 <_init+0x94>
    80003660:	00040513          	mv	a0,s0
    80003664:	c75ff0ef          	jal	800032d8 <printstr>
    80003668:	fd1ff06f          	j	80003638 <_init+0x94>
    8000366c:	01093603          	ld	a2,16(s2)
    80003670:	00000597          	auipc	a1,0x0
    80003674:	3d058593          	addi	a1,a1,976 # 80003a40 <main+0x270>
    80003678:	00040513          	mv	a0,s0
    8000367c:	d95ff0ef          	jal	80003410 <sprintf>
    80003680:	00893683          	ld	a3,8(s2)
    80003684:	00a409b3          	add	s3,s0,a0
    80003688:	fc068ae3          	beqz	a3,8000365c <_init+0xb8>
    8000368c:	fb9ff06f          	j	80003644 <_init+0xa0>

0000000080003690 <strlen>:
    80003690:	00054783          	lbu	a5,0(a0)
    80003694:	00078e63          	beqz	a5,800036b0 <strlen+0x20>
    80003698:	00050793          	mv	a5,a0
    8000369c:	0017c703          	lbu	a4,1(a5)
    800036a0:	00178793          	addi	a5,a5,1
    800036a4:	fe071ce3          	bnez	a4,8000369c <strlen+0xc>
    800036a8:	40a78533          	sub	a0,a5,a0
    800036ac:	00008067          	ret
    800036b0:	00000513          	li	a0,0
    800036b4:	00008067          	ret

00000000800036b8 <strnlen>:
    800036b8:	00b506b3          	add	a3,a0,a1
    800036bc:	00050793          	mv	a5,a0
    800036c0:	00059863          	bnez	a1,800036d0 <strnlen+0x18>
    800036c4:	0240006f          	j	800036e8 <strnlen+0x30>
    800036c8:	00178793          	addi	a5,a5,1
    800036cc:	00f68a63          	beq	a3,a5,800036e0 <strnlen+0x28>
    800036d0:	0007c703          	lbu	a4,0(a5)
    800036d4:	fe071ae3          	bnez	a4,800036c8 <strnlen+0x10>
    800036d8:	40a78533          	sub	a0,a5,a0
    800036dc:	00008067          	ret
    800036e0:	40a68533          	sub	a0,a3,a0
    800036e4:	00008067          	ret
    800036e8:	00000513          	li	a0,0
    800036ec:	00008067          	ret

00000000800036f0 <strcmp>:
    800036f0:	00054783          	lbu	a5,0(a0)
    800036f4:	00158593          	addi	a1,a1,1
    800036f8:	00150513          	addi	a0,a0,1
    800036fc:	fff5c703          	lbu	a4,-1(a1)
    80003700:	00078a63          	beqz	a5,80003714 <strcmp+0x24>
    80003704:	fee786e3          	beq	a5,a4,800036f0 <strcmp>
    80003708:	0007851b          	sext.w	a0,a5
    8000370c:	40e5053b          	subw	a0,a0,a4
    80003710:	00008067          	ret
    80003714:	00000513          	li	a0,0
    80003718:	ff5ff06f          	j	8000370c <strcmp+0x1c>

000000008000371c <strcpy>:
    8000371c:	00050793          	mv	a5,a0
    80003720:	0005c703          	lbu	a4,0(a1)
    80003724:	00178793          	addi	a5,a5,1
    80003728:	00158593          	addi	a1,a1,1
    8000372c:	fee78fa3          	sb	a4,-1(a5)
    80003730:	fe0718e3          	bnez	a4,80003720 <strcpy+0x4>
    80003734:	00008067          	ret

0000000080003738 <atol>:
    80003738:	00054703          	lbu	a4,0(a0)
    8000373c:	02000693          	li	a3,32
    80003740:	00050793          	mv	a5,a0
    80003744:	00d71863          	bne	a4,a3,80003754 <atol+0x1c>
    80003748:	0017c703          	lbu	a4,1(a5)
    8000374c:	00178793          	addi	a5,a5,1
    80003750:	fed70ce3          	beq	a4,a3,80003748 <atol+0x10>
    80003754:	02d00693          	li	a3,45
    80003758:	06d70063          	beq	a4,a3,800037b8 <atol+0x80>
    8000375c:	02b00693          	li	a3,43
    80003760:	04d70063          	beq	a4,a3,800037a0 <atol+0x68>
    80003764:	0007c683          	lbu	a3,0(a5)
    80003768:	00000593          	li	a1,0
    8000376c:	04068263          	beqz	a3,800037b0 <atol+0x78>
    80003770:	00000513          	li	a0,0
    80003774:	00178793          	addi	a5,a5,1
    80003778:	00251713          	slli	a4,a0,0x2
    8000377c:	fd06861b          	addiw	a2,a3,-48
    80003780:	0007c683          	lbu	a3,0(a5)
    80003784:	00a70733          	add	a4,a4,a0
    80003788:	00171713          	slli	a4,a4,0x1
    8000378c:	00e60533          	add	a0,a2,a4
    80003790:	fe0692e3          	bnez	a3,80003774 <atol+0x3c>
    80003794:	02058063          	beqz	a1,800037b4 <atol+0x7c>
    80003798:	40a00533          	neg	a0,a0
    8000379c:	00008067          	ret
    800037a0:	0017c683          	lbu	a3,1(a5)
    800037a4:	00000593          	li	a1,0
    800037a8:	00178793          	addi	a5,a5,1
    800037ac:	fc0692e3          	bnez	a3,80003770 <atol+0x38>
    800037b0:	00000513          	li	a0,0
    800037b4:	00008067          	ret
    800037b8:	0017c683          	lbu	a3,1(a5)
    800037bc:	00100593          	li	a1,1
    800037c0:	00178793          	addi	a5,a5,1
    800037c4:	fa0696e3          	bnez	a3,80003770 <atol+0x38>
    800037c8:	00000513          	li	a0,0
    800037cc:	fe9ff06f          	j	800037b4 <atol+0x7c>

Disassembly of section .text.startup:

00000000800037d0 <main>:
    800037d0:	ff010113          	addi	sp,sp,-16
    800037d4:	00813023          	sd	s0,0(sp)
    800037d8:	00113423          	sd	ra,8(sp)
    800037dc:	50003737          	lui	a4,0x50003
    800037e0:	001007b7          	lui	a5,0x100
    800037e4:	00f73023          	sd	a5,0(a4) # 50003000 <buflen.1+0x50002fc0>
    800037e8:	0000a7b7          	lui	a5,0xa
    800037ec:	c4078793          	addi	a5,a5,-960 # 9c40 <buflen.1+0x9c00>
    800037f0:	00f73423          	sd	a5,8(a4)
    800037f4:	50002437          	lui	s0,0x50002
    800037f8:	00043783          	ld	a5,0(s0) # 50002000 <buflen.1+0x50001fc0>
    800037fc:	0017f793          	andi	a5,a5,1
    80003800:	fe078ce3          	beqz	a5,800037f8 <main+0x28>
    80003804:	00043783          	ld	a5,0(s0)
    80003808:	0027f793          	andi	a5,a5,2
    8000380c:	00078663          	beqz	a5,80003818 <main+0x48>
    80003810:	c2dfe0ef          	jal	8000243c <Authentication>
    80003814:	fe5ff06f          	j	800037f8 <main+0x28>
    80003818:	a60ff0ef          	jal	80002a78 <Verification>
    8000381c:	fddff06f          	j	800037f8 <main+0x28>
    80003820:	ff010113          	addi	sp,sp,-16
    80003824:	00000517          	auipc	a0,0x0
    80003828:	20450513          	addi	a0,a0,516 # 80003a28 <main+0x258>
    8000382c:	00113423          	sd	ra,8(sp)
    80003830:	aa9ff0ef          	jal	800032d8 <printstr>
    80003834:	00813083          	ld	ra,8(sp)
    80003838:	fff00513          	li	a0,-1
    8000383c:	01010113          	addi	sp,sp,16
    80003840:	00008067          	ret
